;--------------------------------------------------------
; File Created by SDCC : free open source ANSI-C Compiler
; Version 4.1.0 #12072 (MINGW32)
;--------------------------------------------------------
	.module title
	.optsdcc -mgbz80
	
;--------------------------------------------------------
; Public variables in this module
;--------------------------------------------------------
	.globl b_Scene_Title
	.globl _Scene_Title
	.globl _color
	.globl _getpix
	.globl _line
	.globl _plot_point
	.globl _plot
	.globl _set_palette
	.globl _wait_vbl_done
	.globl _resources_title_raw_len
	.globl _resources_title_raw
	.globl ___bank_title
;--------------------------------------------------------
; special function registers
;--------------------------------------------------------
;--------------------------------------------------------
; ram data
;--------------------------------------------------------
	.area _DATA
_resources_title_raw_len::
	.ds 2
;--------------------------------------------------------
; absolute external ram data
;--------------------------------------------------------
	.area _DABS (ABS)
;--------------------------------------------------------
; global & static initialisations
;--------------------------------------------------------
	.area _HOME
	.area _GSINIT
	.area _GSFINAL
	.area _GSINIT
;src\/../resources/title.h:299: unsigned int resources_title_raw_len = 3550;
	ld	hl, #_resources_title_raw_len
	ld	(hl), #0xde
	inc	hl
	ld	(hl), #0x0d
;--------------------------------------------------------
; Home
;--------------------------------------------------------
	.area _HOME
	.area _HOME
;--------------------------------------------------------
; code
;--------------------------------------------------------
	.area _CODE_3
;src\title.c:8: void Scene_Title() BANKED
;	---------------------------------
; Function Scene_Title
; ---------------------------------
	b_Scene_Title	= 3
_Scene_Title::
	add	sp, #-5
;src\title.c:10: LCDC_REG = 0xD1;
	ld	a, #0xd1
	ldh	(_LCDC_REG+0),a
;src\title.c:12: set_palette(PALETTE(CBLACK, CGRAY, CSILVER, CWHITE));
	ld	hl, #0x001b
	push	hl
	call	_set_palette
	add	sp, #2
;src\title.c:14: color(BLACK, WHITE, SOLID);
	xor	a, a
	push	af
	inc	sp
	xor	a, a
	ld	d,a
	ld	e,#0x03
	push	de
	call	_color
	add	sp, #3
;src\title.c:19: for (x=0 ; x<25 ; ++x)
	ld	c, #0x00
;src\title.c:20: for (k=0 ; k<4 ; ++k)
00136$:
	ld	a, c
	add	a, a
	add	a, a
	ldhl	sp,	#3
	ld	(hl), a
	xor	a, a
	inc	hl
	ld	(hl), a
00120$:
;src\title.c:21: for (y=k ; y<142 ; y+=4)
	ldhl	sp,	#4
	ld	b, (hl)
00118$:
	ld	a, b
	sub	a, #0x8e
	jp	NC, 00121$
;src\title.c:23: UINT8 p = resources_title_raw[y*25+x];
	ld	l, b
	ld	h, #0x00
	ld	e, l
	ld	d, h
	add	hl, hl
	add	hl, de
	add	hl, hl
	add	hl, hl
	add	hl, hl
	add	hl, de
	ld	a, c
	ld	d, #0x00
	add	a, l
	ld	e, a
	ld	a, d
	adc	a, h
	ld	d, a
	ld	hl, #_resources_title_raw
	add	hl, de
	ld	d, (hl)
;src\title.c:24: plot(x * 4, y, (p & 3), SOLID);
	ld	a, d
	and	a, #0x03
	push	bc
	push	de
	ld	h, #0x00
	push	hl
	inc	sp
	push	af
	inc	sp
	push	bc
	inc	sp
	ldhl	sp,	#10
	ld	a, (hl)
	push	af
	inc	sp
	call	_plot
	add	sp, #4
	pop	de
	pop	bc
;src\title.c:25: plot(x * 4 + 1, y, (p >> 2) & 3, SOLID);
	ld	a, d
	rrca
	rrca
	and	a, #0x3f
	and	a, #0x03
	ld	l, a
	ld	a, c
	add	a, a
	add	a, a
	ld	e, a
	ld	h, e
	inc	h
	push	bc
	push	de
	xor	a, a
	push	af
	inc	sp
	ld	a, l
	push	af
	ld	c, h
	inc	sp
	push	bc
	call	_plot
	add	sp, #4
	pop	de
	pop	bc
;src\title.c:26: plot(x * 4 + 2, y, (p >> 4) & 3, SOLID);
	ld	a, d
	swap	a
	and	a, #0x0f
	and	a, #0x03
	ld	l, a
	ld	h, e
	inc	h
	inc	h
	push	bc
	push	de
	xor	a, a
	push	af
	inc	sp
	ld	a, l
	push	af
	ld	c, h
	inc	sp
	push	bc
	call	_plot
	add	sp, #4
	pop	de
	pop	bc
;src\title.c:27: plot(x * 4 + 3, y, (p >> 6) & 3, SOLID);
	ld	a, d
	rlca
	rlca
	and	a, #0x03
	and	a, #0x03
	ld	l, a
	inc	e
	inc	e
	inc	e
	push	bc
	xor	a, a
	push	af
	ld	a, l
	inc	sp
	push	af
	inc	sp
	ld	c, e
	push	bc
	call	_plot
	add	sp, #4
	pop	bc
;src\title.c:21: for (y=k ; y<142 ; y+=4)
	ld	a, b
	add	a, #0x04
	ld	b, a
	jp	00118$
00121$:
;src\title.c:20: for (k=0 ; k<4 ; ++k)
	ldhl	sp,	#4
	inc	(hl)
	ld	a, (hl)
	sub	a, #0x04
	jp	C, 00120$
;src\title.c:19: for (x=0 ; x<25 ; ++x)
	inc	c
	ld	a, c
	sub	a, #0x19
	jp	C, 00136$
;src\title.c:30: x = 0;
	ld	c, #0x00
;src\title.c:31: y = 0;
	xor	a, a
	ldhl	sp,	#0
	ld	(hl), a
;src\title.c:33: PAUSE(50);
	ld	hl, #_pause_counter
	ld	a, #0x00
	ld	(hl+), a
	ld	(hl), #0x00
00124$:
	call	_wait_vbl_done
	ld	hl, #_pause_counter
	inc	(hl)
	jr	NZ, 00224$
	inc	hl
	inc	(hl)
00224$:
	ld	hl, #_pause_counter
	ld	a, (hl)
	sub	a, #0x32
	inc	hl
	ld	a, (hl)
	sbc	a, #0x00
	jr	C, 00124$
;src\title.c:34: set_palette(PALETTE(CWHITE, CSILVER, CGRAY, CBLACK));
	push	bc
	ld	hl, #0x00e4
	push	hl
	call	_set_palette
	add	sp, #2
	pop	bc
;src\title.c:35: PAUSE(105);
	ld	hl, #_pause_counter
	ld	a, #0x00
	ld	(hl+), a
	ld	(hl), #0x00
00126$:
	call	_wait_vbl_done
	ld	hl, #_pause_counter
	inc	(hl)
	jr	NZ, 00225$
	inc	hl
	inc	(hl)
00225$:
	ld	hl, #_pause_counter
	ld	a, (hl)
	sub	a, #0x69
	inc	hl
	ld	a, (hl)
	sbc	a, #0x00
	jr	C, 00126$
;src\title.c:38: while (1)
	xor	a, a
	ldhl	sp,	#2
	ld	(hl+), a
	ld	(hl), a
00114$:
;src\title.c:40: ++sync;
	ldhl	sp,	#2
	inc	(hl)
	jr	NZ, 00226$
	inc	hl
	inc	(hl)
00226$:
;src\title.c:41: if (sync>615)
	ldhl	sp,	#2
	ld	a, #0x67
	sub	a, (hl)
	inc	hl
	ld	a, #0x02
	sbc	a, (hl)
	ld	a, #0x02
	ld	d, a
	bit	7, (hl)
	jr	Z, 00227$
	bit	7, d
	jr	NZ, 00228$
	cp	a, a
	jr	00228$
00227$:
	bit	7, d
	jr	Z, 00228$
	scf
00228$:
	jr	C, 00115$
;src\title.c:44: for (k=0 ; k<10 ; ++k)
	xor	a, a
	ldhl	sp,	#4
	ld	(hl), a
00128$:
;src\title.c:46: UINT8 c = getpix(x, y);
	push	bc
	ldhl	sp,	#2
	ld	b, (hl)
	push	bc
	call	_getpix
	add	sp, #2
	ld	a, e
	pop	bc
	ld	b, a
;src\title.c:47: plot_point(x, y);
	push	bc
	ldhl	sp,	#2
	ld	b, (hl)
	push	bc
	call	_plot_point
	add	sp, #2
	pop	bc
;src\title.c:21: for (y=k ; y<142 ; y+=4)
	ldhl	sp,	#0
	ld	a, (hl+)
	ld	(hl), a
;src\title.c:48: plot(x, y+1, c, SOLID);
	ld	a, (hl)
	inc	a
	push	bc
	ld	h, #0x00
	ld	l, b
	push	hl
	ld	b, a
	push	bc
	call	_plot
	add	sp, #4
	pop	bc
;src\title.c:49: plot(x, y+2, c, SOLID);
	ldhl	sp,	#1
	ld	a, (hl)
	inc	a
	inc	a
	push	bc
	ld	h, #0x00
	ld	l, b
	push	hl
	ld	b, a
	push	bc
	call	_plot
	add	sp, #4
	pop	bc
;src\title.c:51: x += 3;
	inc	c
	inc	c
	inc	c
;src\title.c:52: if (x>=100) x-= 100;
	ld	a,c
	cp	a,#0x64
	jr	C, 00129$
	add	a, #0x9c
	ld	c, a
00129$:
;src\title.c:44: for (k=0 ; k<10 ; ++k)
	ldhl	sp,	#4
	inc	(hl)
	ld	a, (hl)
	sub	a, #0x0a
	jr	C, 00128$
;src\title.c:55: y += 3;
	ldhl	sp,	#1
	ld	a, (hl)
	add	a, #0x03
	dec	hl
	ld	(hl), a
;src\title.c:56: if (y>=142) y-= 142;
	ld	a, (hl)
	sub	a, #0x8e
	jp	C, 00114$
	ld	a, (hl)
	add	a, #0x72
	ld	(hl), a
	jp	00114$
00115$:
;src\title.c:59: color(0, 0, SOLID);
	xor	a, a
	push	af
	inc	sp
	xor	a, a
	push	af
	inc	sp
	xor	a, a
	push	af
	inc	sp
	call	_color
	add	sp, #3
;src\title.c:60: for (y=0 ; y<144 ; ++y)
	ld	b, #0x00
00130$:
;src\title.c:62: line(0, y, 159, y);
	push	bc
	push	bc
	inc	sp
	ld	a, #0x9f
	push	af
	inc	sp
	push	bc
	inc	sp
	xor	a, a
	push	af
	inc	sp
	call	_line
	add	sp, #4
	pop	bc
;src\title.c:60: for (y=0 ; y<144 ; ++y)
	inc	b
	ld	a, b
	sub	a, #0x90
	jr	C, 00130$
;src\title.c:64: }
	add	sp, #5
	ret
___bank_title	=	0x0003
_resources_title_raw:
	.db #0xff	; 255
	.db #0xff	; 255
	.db #0xaa	; 170
	.db #0xfe	; 254
	.db #0xff	; 255
	.db #0xff	; 255
	.db #0xbf	; 191
	.db #0xaa	; 170
	.db #0xea	; 234
	.db #0xff	; 255
	.db #0xff	; 255
	.db #0xff	; 255
	.db #0xff	; 255
	.db #0xff	; 255
	.db #0xaa	; 170
	.db #0xaa	; 170
	.db #0xff	; 255
	.db #0xff	; 255
	.db #0xff	; 255
	.db #0xff	; 255
	.db #0xff	; 255
	.db #0xff	; 255
	.db #0xff	; 255
	.db #0xff	; 255
	.db #0xff	; 255
	.db #0xff	; 255
	.db #0xab	; 171
	.db #0xaa	; 170
	.db #0xea	; 234
	.db #0xff	; 255
	.db #0xff	; 255
	.db #0xaf	; 175
	.db #0xaa	; 170
	.db #0xaa	; 170
	.db #0xff	; 255
	.db #0xff	; 255
	.db #0xff	; 255
	.db #0xff	; 255
	.db #0xbf	; 191
	.db #0xaa	; 170
	.db #0xaa	; 170
	.db #0xfe	; 254
	.db #0xff	; 255
	.db #0xff	; 255
	.db #0xff	; 255
	.db #0xff	; 255
	.db #0xff	; 255
	.db #0xff	; 255
	.db #0xff	; 255
	.db #0xff	; 255
	.db #0xff	; 255
	.db #0xaa	; 170
	.db #0xaa	; 170
	.db #0xaa	; 170
	.db #0xff	; 255
	.db #0xff	; 255
	.db #0xab	; 171
	.db #0xaa	; 170
	.db #0xaa	; 170
	.db #0xfe	; 254
	.db #0xff	; 255
	.db #0xff	; 255
	.db #0xff	; 255
	.db #0xaf	; 175
	.db #0xaa	; 170
	.db #0xaa	; 170
	.db #0xfa	; 250
	.db #0xff	; 255
	.db #0xff	; 255
	.db #0xff	; 255
	.db #0xff	; 255
	.db #0xff	; 255
	.db #0xff	; 255
	.db #0xff	; 255
	.db #0xff	; 255
	.db #0xbf	; 191
	.db #0xaa	; 170
	.db #0xaa	; 170
	.db #0xaa	; 170
	.db #0xfe	; 254
	.db #0xff	; 255
	.db #0xab	; 171
	.db #0xaa	; 170
	.db #0xaa	; 170
	.db #0xfe	; 254
	.db #0xff	; 255
	.db #0xff	; 255
	.db #0xff	; 255
	.db #0xaf	; 175
	.db #0xaa	; 170
	.db #0xaa	; 170
	.db #0xfa	; 250
	.db #0xff	; 255
	.db #0xff	; 255
	.db #0xff	; 255
	.db #0xff	; 255
	.db #0xff	; 255
	.db #0xff	; 255
	.db #0xff	; 255
	.db #0xff	; 255
	.db #0xaf	; 175
	.db #0xaa	; 170
	.db #0xaa	; 170
	.db #0xaa	; 170
	.db #0xfa	; 250
	.db #0xff	; 255
	.db #0xab	; 171
	.db #0x5a	; 90	'Z'
	.db #0xa9	; 169
	.db #0xfe	; 254
	.db #0xff	; 255
	.db #0xff	; 255
	.db #0xff	; 255
	.db #0xaf	; 175
	.db #0xaa	; 170
	.db #0xa9	; 169
	.db #0xfa	; 250
	.db #0xff	; 255
	.db #0xff	; 255
	.db #0xff	; 255
	.db #0xff	; 255
	.db #0xff	; 255
	.db #0xff	; 255
	.db #0xff	; 255
	.db #0xff	; 255
	.db #0xab	; 171
	.db #0x6a	; 106	'j'
	.db #0x00	; 0
	.db #0xa9	; 169
	.db #0xfa	; 250
	.db #0xff	; 255
	.db #0xab	; 171
	.db #0x02	; 2
	.db #0xa8	; 168
	.db #0xfe	; 254
	.db #0xff	; 255
	.db #0xff	; 255
	.db #0xff	; 255
	.db #0xaf	; 175
	.db #0x1a	; 26
	.db #0xa0	; 160
	.db #0xfa	; 250
	.db #0xff	; 255
	.db #0xff	; 255
	.db #0xff	; 255
	.db #0xff	; 255
	.db #0xff	; 255
	.db #0xff	; 255
	.db #0xff	; 255
	.db #0xff	; 255
	.db #0xab	; 171
	.db #0x5a	; 90	'Z'
	.db #0x00	; 0
	.db #0xa8	; 168
	.db #0xfa	; 250
	.db #0xff	; 255
	.db #0xab	; 171
	.db #0x06	; 6
	.db #0xa8	; 168
	.db #0xae	; 174
	.db #0xea	; 234
	.db #0xff	; 255
	.db #0xff	; 255
	.db #0xaf	; 175
	.db #0x1a	; 26
	.db #0xa4	; 164
	.db #0xfa	; 250
	.db #0xff	; 255
	.db #0xff	; 255
	.db #0xff	; 255
	.db #0xff	; 255
	.db #0xff	; 255
	.db #0xff	; 255
	.db #0xff	; 255
	.db #0xff	; 255
	.db #0xab	; 171
	.db #0x0a	; 10
	.db #0x00	; 0
	.db #0xa0	; 160
	.db #0xaa	; 170
	.db #0xaa	; 170
	.db #0xaa	; 170
	.db #0x02	; 2
	.db #0xa8	; 168
	.db #0xaa	; 170
	.db #0xaa	; 170
	.db #0xbe	; 190
	.db #0xaa	; 170
	.db #0xaa	; 170
	.db #0x1a	; 26
	.db #0xa0	; 160
	.db #0xaa	; 170
	.db #0xaa	; 170
	.db #0xaa	; 170
	.db #0xaa	; 170
	.db #0xaa	; 170
	.db #0xaa	; 170
	.db #0xaa	; 170
	.db #0xaa	; 170
	.db #0xfe	; 254
	.db #0xab	; 171
	.db #0x06	; 6
	.db #0xa4	; 164
	.db #0xa4	; 164
	.db #0xaa	; 170
	.db #0xaa	; 170
	.db #0xaa	; 170
	.db #0x06	; 6
	.db #0xa8	; 168
	.db #0xaa	; 170
	.db #0xaa	; 170
	.db #0xaa	; 170
	.db #0xaa	; 170
	.db #0xaa	; 170
	.db #0x1a	; 26
	.db #0xa4	; 164
	.db #0xaa	; 170
	.db #0xaa	; 170
	.db #0xaa	; 170
	.db #0xaa	; 170
	.db #0xaa	; 170
	.db #0xaa	; 170
	.db #0xaa	; 170
	.db #0xaa	; 170
	.db #0xfa	; 250
	.db #0xab	; 171
	.db #0x02	; 2
	.db #0xa8	; 168
	.db #0xa2	; 162
	.db #0xaa	; 170
	.db #0xaa	; 170
	.db #0xaa	; 170
	.db #0x02	; 2
	.db #0xa8	; 168
	.db #0xaa	; 170
	.db #0xaa	; 170
	.db #0xaa	; 170
	.db #0xaa	; 170
	.db #0xaa	; 170
	.db #0x1a	; 26
	.db #0xa0	; 160
	.db #0xaa	; 170
	.db #0xaa	; 170
	.db #0xaa	; 170
	.db #0xaa	; 170
	.db #0xaa	; 170
	.db #0xaa	; 170
	.db #0xaa	; 170
	.db #0xaa	; 170
	.db #0xea	; 234
	.db #0xab	; 171
	.db #0x06	; 6
	.db #0xa8	; 168
	.db #0xa5	; 165
	.db #0xaa	; 170
	.db #0xaa	; 170
	.db #0xaa	; 170
	.db #0x06	; 6
	.db #0xa8	; 168
	.db #0xaa	; 170
	.db #0xaa	; 170
	.db #0xaa	; 170
	.db #0xaa	; 170
	.db #0xaa	; 170
	.db #0x1a	; 26
	.db #0xa4	; 164
	.db #0xaa	; 170
	.db #0xaa	; 170
	.db #0xaa	; 170
	.db #0xaa	; 170
	.db #0xaa	; 170
	.db #0xaa	; 170
	.db #0xaa	; 170
	.db #0xaa	; 170
	.db #0xea	; 234
	.db #0xab	; 171
	.db #0x02	; 2
	.db #0xa8	; 168
	.db #0xa1	; 161
	.db #0x2a	; 42
	.db #0x00	; 0
	.db #0xaa	; 170
	.db #0x02	; 2
	.db #0xa8	; 168
	.db #0x06	; 6
	.db #0x90	; 144
	.db #0xaa	; 170
	.db #0x02	; 2
	.db #0xa0	; 160
	.db #0x1a	; 26
	.db #0xa0	; 160
	.db #0x2a	; 42
	.db #0x00	; 0
	.db #0xaa	; 170
	.db #0x02	; 2
	.db #0xa9	; 169
	.db #0x81	; 129
	.db #0x1a	; 26
	.db #0xa0	; 160
	.db #0xea	; 234
	.db #0xab	; 171
	.db #0x06	; 6
	.db #0xa8	; 168
	.db #0xa4	; 164
	.db #0x0a	; 10
	.db #0x00	; 0
	.db #0xa8	; 168
	.db #0x06	; 6
	.db #0xa8	; 168
	.db #0x01	; 1
	.db #0x40	; 64
	.db #0xaa	; 170
	.db #0x00	; 0
	.db #0x80	; 128
	.db #0x1a	; 26
	.db #0xa4	; 164
	.db #0x0a	; 10
	.db #0x00	; 0
	.db #0xa8	; 168
	.db #0x02	; 2
	.db #0xa8	; 168
	.db #0x80	; 128
	.db #0x0a	; 10
	.db #0xa4	; 164
	.db #0xea	; 234
	.db #0xab	; 171
	.db #0x02	; 2
	.db #0x68	; 104	'h'
	.db #0xa0	; 160
	.db #0x02	; 2
	.db #0x00	; 0
	.db #0xa0	; 160
	.db #0x02	; 2
	.db #0xa8	; 168
	.db #0x00	; 0
	.db #0x00	; 0
	.db #0x2a	; 42
	.db #0x00	; 0
	.db #0x40	; 64
	.db #0x1a	; 26
	.db #0xa0	; 160
	.db #0x02	; 2
	.db #0x00	; 0
	.db #0xa8	; 168
	.db #0x02	; 2
	.db #0xa9	; 169
	.db #0x80	; 128
	.db #0x0a	; 10
	.db #0xa0	; 160
	.db #0xea	; 234
	.db #0xab	; 171
	.db #0x06	; 6
	.db #0x68	; 104	'h'
	.db #0xa4	; 164
	.db #0x02	; 2
	.db #0x09	; 9
	.db #0xa4	; 164
	.db #0x06	; 6
	.db #0xa8	; 168
	.db #0x80	; 128
	.db #0x02	; 2
	.db #0x6a	; 106	'j'
	.db #0x80	; 128
	.db #0x8a	; 138
	.db #0x1a	; 26
	.db #0xa4	; 164
	.db #0x91	; 145
	.db #0x06	; 6
	.db #0xa8	; 168
	.db #0x06	; 6
	.db #0xa8	; 168
	.db #0x80	; 128
	.db #0x0a	; 10
	.db #0xa4	; 164
	.db #0xfa	; 250
	.db #0xab	; 171
	.db #0x02	; 2
	.db #0x28	; 40
	.db #0xa0	; 160
	.db #0x02	; 2
	.db #0x1a	; 26
	.db #0xa0	; 160
	.db #0x02	; 2
	.db #0x68	; 104	'h'
	.db #0x80	; 128
	.db #0x02	; 2
	.db #0x2a	; 42
	.db #0xa0	; 160
	.db #0x5a	; 90	'Z'
	.db #0x1a	; 26
	.db #0xa0	; 160
	.db #0xa5	; 165
	.db #0x0a	; 10
	.db #0xa4	; 164
	.db #0x02	; 2
	.db #0xa8	; 168
	.db #0x40	; 64
	.db #0x0a	; 10
	.db #0xa4	; 164
	.db #0xfa	; 250
	.db #0xab	; 171
	.db #0x06	; 6
	.db #0x18	; 24
	.db #0xa8	; 168
	.db #0x41	; 65	'A'
	.db #0x1a	; 26
	.db #0xa0	; 160
	.db #0x06	; 6
	.db #0x68	; 104	'h'
	.db #0x80	; 128
	.db #0x06	; 6
	.db #0x29	; 41
	.db #0xa0	; 160
	.db #0x4a	; 74	'J'
	.db #0x1a	; 26
	.db #0xa4	; 164
	.db #0xa8	; 168
	.db #0x0a	; 10
	.db #0xa8	; 168
	.db #0x06	; 6
	.db #0xa8	; 168
	.db #0x40	; 64
	.db #0x0a	; 10
	.db #0xa8	; 168
	.db #0xfa	; 250
	.db #0xab	; 171
	.db #0x02	; 2
	.db #0x08	; 8
	.db #0xa8	; 168
	.db #0x01	; 1
	.db #0x1a	; 26
	.db #0xa0	; 160
	.db #0x02	; 2
	.db #0x28	; 40
	.db #0x80	; 128
	.db #0x02	; 2
	.db #0x29	; 41
	.db #0x90	; 144
	.db #0x46	; 70	'F'
	.db #0x1a	; 26
	.db #0xa0	; 160
	.db #0xa4	; 164
	.db #0x0a	; 10
	.db #0xa4	; 164
	.db #0x06	; 6
	.db #0x64	; 100	'd'
	.db #0x00	; 0
	.db #0x0a	; 10
	.db #0xa8	; 168
	.db #0xfa	; 250
	.db #0xab	; 171
	.db #0x06	; 6
	.db #0x04	; 4
	.db #0xa8	; 168
	.db #0x41	; 65	'A'
	.db #0x1a	; 26
	.db #0xa0	; 160
	.db #0x06	; 6
	.db #0x68	; 104	'h'
	.db #0x80	; 128
	.db #0x06	; 6
	.db #0x69	; 105	'i'
	.db #0x80	; 128
	.db #0x86	; 134
	.db #0x1a	; 26
	.db #0xa4	; 164
	.db #0xa4	; 164
	.db #0x0a	; 10
	.db #0xa8	; 168
	.db #0x0a	; 10
	.db #0xa4	; 164
	.db #0x40	; 64
	.db #0x0a	; 10
	.db #0xa8	; 168
	.db #0xfa	; 250
	.db #0xab	; 171
	.db #0x02	; 2
	.db #0x54	; 84	'T'
	.db #0xaa	; 170
	.db #0x01	; 1
	.db #0x1a	; 26
	.db #0xa0	; 160
	.db #0x02	; 2
	.db #0x68	; 104	'h'
	.db #0x80	; 128
	.db #0x02	; 2
	.db #0x29	; 41
	.db #0x80	; 128
	.db #0x82	; 130
	.db #0x1a	; 26
	.db #0xa0	; 160
	.db #0xa1	; 161
	.db #0x0a	; 10
	.db #0xa4	; 164
	.db #0x0a	; 10
	.db #0x60	; 96
	.db #0x00	; 0
	.db #0x0a	; 10
	.db #0xa9	; 169
	.db #0xfa	; 250
	.db #0xab	; 171
	.db #0x06	; 6
	.db #0xa8	; 168
	.db #0xaa	; 170
	.db #0x41	; 65	'A'
	.db #0x1a	; 26
	.db #0xa0	; 160
	.db #0x06	; 6
	.db #0x68	; 104	'h'
	.db #0x80	; 128
	.db #0x06	; 6
	.db #0x69	; 105	'i'
	.db #0x80	; 128
	.db #0x80	; 128
	.db #0x1a	; 26
	.db #0xa4	; 164
	.db #0x80	; 128
	.db #0x0a	; 10
	.db #0xa8	; 168
	.db #0x0a	; 10
	.db #0x64	; 100	'd'
	.db #0x00	; 0
	.db #0x0a	; 10
	.db #0xa8	; 168
	.db #0xfe	; 254
	.db #0xab	; 171
	.db #0x02	; 2
	.db #0xa8	; 168
	.db #0xaa	; 170
	.db #0x01	; 1
	.db #0x2a	; 42
	.db #0xa0	; 160
	.db #0x02	; 2
	.db #0x28	; 40
	.db #0x80	; 128
	.db #0x02	; 2
	.db #0xa9	; 169
	.db #0x00	; 0
	.db #0x95	; 149
	.db #0x1a	; 26
	.db #0xa0	; 160
	.db #0x01	; 1
	.db #0x0a	; 10
	.db #0xa4	; 164
	.db #0x1a	; 26
	.db #0x20	; 32
	.db #0x01	; 1
	.db #0x0a	; 10
	.db #0xa9	; 169
	.db #0xfe	; 254
	.db #0xab	; 171
	.db #0x06	; 6
	.db #0xa8	; 168
	.db #0xaa	; 170
	.db #0x41	; 65	'A'
	.db #0x1a	; 26
	.db #0xa0	; 160
	.db #0x06	; 6
	.db #0x68	; 104	'h'
	.db #0x80	; 128
	.db #0x06	; 6
	.db #0xa9	; 169
	.db #0x01	; 1
	.db #0xaa	; 170
	.db #0x1a	; 26
	.db #0xa4	; 164
	.db #0x02	; 2
	.db #0x09	; 9
	.db #0xa8	; 168
	.db #0x1a	; 26
	.db #0x64	; 100	'd'
	.db #0x05	; 5
	.db #0x09	; 9
	.db #0xaa	; 170
	.db #0xfe	; 254
	.db #0xab	; 171
	.db #0x02	; 2
	.db #0xa8	; 168
	.db #0xaa	; 170
	.db #0x01	; 1
	.db #0x1a	; 26
	.db #0xa0	; 160
	.db #0x02	; 2
	.db #0x68	; 104	'h'
	.db #0x00	; 0
	.db #0x11	; 17
	.db #0xaa	; 170
	.db #0x02	; 2
	.db #0xa9	; 169
	.db #0x1a	; 26
	.db #0xa0	; 160
	.db #0x02	; 2
	.db #0x04	; 4
	.db #0xa4	; 164
	.db #0x2a	; 42
	.db #0x20	; 32
	.db #0x01	; 1
	.db #0x05	; 5
	.db #0xaa	; 170
	.db #0xfe	; 254
	.db #0xab	; 171
	.db #0x06	; 6
	.db #0xa8	; 168
	.db #0xaa	; 170
	.db #0x41	; 65	'A'
	.db #0x1a	; 26
	.db #0xa0	; 160
	.db #0x06	; 6
	.db #0x68	; 104	'h'
	.db #0x80	; 128
	.db #0xaa	; 170
	.db #0xaa	; 170
	.db #0x06	; 6
	.db #0xa8	; 168
	.db #0x1a	; 26
	.db #0xa4	; 164
	.db #0xaa	; 170
	.db #0x06	; 6
	.db #0xa8	; 168
	.db #0x2a	; 42
	.db #0x24	; 36
	.db #0x09	; 9
	.db #0x48	; 72	'H'
	.db #0xaa	; 170
	.db #0xfe	; 254
	.db #0xab	; 171
	.db #0x02	; 2
	.db #0xa8	; 168
	.db #0xaa	; 170
	.db #0x01	; 1
	.db #0x1a	; 26
	.db #0xa0	; 160
	.db #0x02	; 2
	.db #0x28	; 40
	.db #0x80	; 128
	.db #0xaa	; 170
	.db #0xaa	; 170
	.db #0x0a	; 10
	.db #0xa4	; 164
	.db #0x1a	; 26
	.db #0xa0	; 160
	.db #0xaa	; 170
	.db #0x01	; 1
	.db #0xa4	; 164
	.db #0x2a	; 42
	.db #0x20	; 32
	.db #0x0a	; 10
	.db #0x04	; 4
	.db #0xaa	; 170
	.db #0xff	; 255
	.db #0xab	; 171
	.db #0x06	; 6
	.db #0xa8	; 168
	.db #0xa9	; 169
	.db #0x41	; 65	'A'
	.db #0x1a	; 26
	.db #0xa0	; 160
	.db #0x06	; 6
	.db #0x68	; 104	'h'
	.db #0x80	; 128
	.db #0x6a	; 106	'j'
	.db #0xaa	; 170
	.db #0x0a	; 10
	.db #0xa4	; 164
	.db #0x1a	; 26
	.db #0xa4	; 164
	.db #0x6a	; 106	'j'
	.db #0x08	; 8
	.db #0x68	; 104	'h'
	.db #0x6a	; 106	'j'
	.db #0x60	; 96
	.db #0x0a	; 10
	.db #0x44	; 68	'D'
	.db #0xaa	; 170
	.db #0xff	; 255
	.db #0xab	; 171
	.db #0x02	; 2
	.db #0xa8	; 168
	.db #0xa5	; 165
	.db #0x01	; 1
	.db #0x1a	; 26
	.db #0xa0	; 160
	.db #0x02	; 2
	.db #0x68	; 104	'h'
	.db #0x80	; 128
	.db #0x2a	; 42
	.db #0xaa	; 170
	.db #0x1a	; 26
	.db #0x90	; 144
	.db #0x1a	; 26
	.db #0xa0	; 160
	.db #0x1a	; 26
	.db #0x0a	; 10
	.db #0x24	; 36
	.db #0x2a	; 42
	.db #0x10	; 16
	.db #0x0a	; 10
	.db #0x44	; 68	'D'
	.db #0xaa	; 170
	.db #0xff	; 255
	.db #0xab	; 171
	.db #0x06	; 6
	.db #0xa8	; 168
	.db #0xa8	; 168
	.db #0x41	; 65	'A'
	.db #0x1a	; 26
	.db #0xa0	; 160
	.db #0x06	; 6
	.db #0x68	; 104	'h'
	.db #0x80	; 128
	.db #0x6a	; 106	'j'
	.db #0x6a	; 106	'j'
	.db #0x50	; 80	'P'
	.db #0x80	; 128
	.db #0x1a	; 26
	.db #0xa4	; 164
	.db #0x0a	; 10
	.db #0x0a	; 10
	.db #0x68	; 104	'h'
	.db #0x6a	; 106	'j'
	.db #0x50	; 80	'P'
	.db #0x1a	; 26
	.db #0x84	; 132
	.db #0xaa	; 170
	.db #0xff	; 255
	.db #0xab	; 171
	.db #0x02	; 2
	.db #0xa8	; 168
	.db #0xa5	; 165
	.db #0x01	; 1
	.db #0x2a	; 42
	.db #0xa0	; 160
	.db #0x02	; 2
	.db #0x28	; 40
	.db #0x80	; 128
	.db #0x2a	; 42
	.db #0x2a	; 42
	.db #0x60	; 96
	.db #0x40	; 64
	.db #0x1a	; 26
	.db #0xa0	; 160
	.db #0x02	; 2
	.db #0x0a	; 10
	.db #0x24	; 36
	.db #0x6a	; 106	'j'
	.db #0x00	; 0
	.db #0x1a	; 26
	.db #0x80	; 128
	.db #0xaa	; 170
	.db #0xff	; 255
	.db #0xab	; 171
	.db #0x06	; 6
	.db #0xa8	; 168
	.db #0xa8	; 168
	.db #0x41	; 65	'A'
	.db #0x1a	; 26
	.db #0xa0	; 160
	.db #0x06	; 6
	.db #0x68	; 104	'h'
	.db #0x80	; 128
	.db #0x6a	; 106	'j'
	.db #0x69	; 105	'i'
	.db #0xa4	; 164
	.db #0x40	; 64
	.db #0x1a	; 26
	.db #0xa4	; 164
	.db #0x42	; 66	'B'
	.db #0x0a	; 10
	.db #0x68	; 104	'h'
	.db #0xaa	; 170
	.db #0x40	; 64
	.db #0x1a	; 26
	.db #0x80	; 128
	.db #0xaa	; 170
	.db #0xff	; 255
	.db #0xab	; 171
	.db #0x02	; 2
	.db #0xa8	; 168
	.db #0xa5	; 165
	.db #0x01	; 1
	.db #0x1a	; 26
	.db #0xa0	; 160
	.db #0x02	; 2
	.db #0x69	; 105	'i'
	.db #0x80	; 128
	.db #0x2a	; 42
	.db #0x2a	; 42
	.db #0xa8	; 168
	.db #0x01	; 1
	.db #0x1a	; 26
	.db #0xa0	; 160
	.db #0x01	; 1
	.db #0x0a	; 10
	.db #0x24	; 36
	.db #0xaa	; 170
	.db #0x41	; 65	'A'
	.db #0x2a	; 42
	.db #0x90	; 144
	.db #0xea	; 234
	.db #0xff	; 255
	.db #0xab	; 171
	.db #0x06	; 6
	.db #0xa8	; 168
	.db #0xa8	; 168
	.db #0x01	; 1
	.db #0x1a	; 26
	.db #0xa0	; 160
	.db #0x06	; 6
	.db #0x68	; 104	'h'
	.db #0x80	; 128
	.db #0x2a	; 42
	.db #0x2a	; 42
	.db #0xa8	; 168
	.db #0x01	; 1
	.db #0x1a	; 26
	.db #0xa4	; 164
	.db #0x41	; 65	'A'
	.db #0x1a	; 26
	.db #0x28	; 40
	.db #0xaa	; 170
	.db #0x80	; 128
	.db #0x6a	; 106	'j'
	.db #0x90	; 144
	.db #0xea	; 234
	.db #0xff	; 255
	.db #0xab	; 171
	.db #0x02	; 2
	.db #0xa8	; 168
	.db #0xa4	; 164
	.db #0x01	; 1
	.db #0x1a	; 26
	.db #0xa0	; 160
	.db #0x02	; 2
	.db #0x28	; 40
	.db #0x80	; 128
	.db #0x2a	; 42
	.db #0x2a	; 42
	.db #0xaa	; 170
	.db #0x02	; 2
	.db #0x1a	; 26
	.db #0xa0	; 160
	.db #0x01	; 1
	.db #0x16	; 22
	.db #0x24	; 36
	.db #0xaa	; 170
	.db #0x41	; 65	'A'
	.db #0x2a	; 42
	.db #0xa0	; 160
	.db #0xea	; 234
	.db #0xff	; 255
	.db #0xab	; 171
	.db #0x06	; 6
	.db #0xa8	; 168
	.db #0xa8	; 168
	.db #0x01	; 1
	.db #0x1a	; 26
	.db #0xa4	; 164
	.db #0x06	; 6
	.db #0x68	; 104	'h'
	.db #0x80	; 128
	.db #0x5a	; 90	'Z'
	.db #0x6a	; 106	'j'
	.db #0xaa	; 170
	.db #0x41	; 65	'A'
	.db #0x1a	; 26
	.db #0xa4	; 164
	.db #0x41	; 65	'A'
	.db #0x16	; 22
	.db #0x64	; 100	'd'
	.db #0xaa	; 170
	.db #0x81	; 129
	.db #0x6a	; 106	'j'
	.db #0xa0	; 160
	.db #0xea	; 234
	.db #0xff	; 255
	.db #0xab	; 171
	.db #0x02	; 2
	.db #0x20	; 32
	.db #0xa9	; 169
	.db #0x02	; 2
	.db #0x05	; 5
	.db #0xa0	; 160
	.db #0x02	; 2
	.db #0x68	; 104	'h'
	.db #0x00	; 0
	.db #0x06	; 6
	.db #0x2a	; 42
	.db #0x65	; 101	'e'
	.db #0x01	; 1
	.db #0x1a	; 26
	.db #0xa0	; 160
	.db #0x01	; 1
	.db #0x21	; 33
	.db #0x10	; 16
	.db #0xaa	; 170
	.db #0x82	; 130
	.db #0x6a	; 106	'j'
	.db #0xa0	; 160
	.db #0xea	; 234
	.db #0xff	; 255
	.db #0xab	; 171
	.db #0x0a	; 10
	.db #0x00	; 0
	.db #0xa9	; 169
	.db #0x02	; 2
	.db #0x00	; 0
	.db #0xa8	; 168
	.db #0x06	; 6
	.db #0xa8	; 168
	.db #0x00	; 0
	.db #0x40	; 64
	.db #0x6a	; 106	'j'
	.db #0x00	; 0
	.db #0x40	; 64
	.db #0x1a	; 26
	.db #0xa4	; 164
	.db #0x01	; 1
	.db #0x24	; 36
	.db #0x40	; 64
	.db #0xaa	; 170
	.db #0x82	; 130
	.db #0xaa	; 170
	.db #0xa4	; 164
	.db #0xea	; 234
	.db #0xff	; 255
	.db #0xab	; 171
	.db #0x0a	; 10
	.db #0x00	; 0
	.db #0xaa	; 170
	.db #0x02	; 2
	.db #0x00	; 0
	.db #0xa9	; 169
	.db #0x02	; 2
	.db #0xa8	; 168
	.db #0x01	; 1
	.db #0x90	; 144
	.db #0x6a	; 106	'j'
	.db #0x00	; 0
	.db #0x90	; 144
	.db #0x1a	; 26
	.db #0xa0	; 160
	.db #0x02	; 2
	.db #0x24	; 36
	.db #0x00	; 0
	.db #0xaa	; 170
	.db #0x92	; 146
	.db #0xaa	; 170
	.db #0xa0	; 160
	.db #0xfa	; 250
	.db #0xff	; 255
	.db #0xab	; 171
	.db #0x6a	; 106	'j'
	.db #0x80	; 128
	.db #0xaa	; 170
	.db #0x5a	; 90	'Z'
	.db #0x80	; 128
	.db #0xaa	; 170
	.db #0xaa	; 170
	.db #0xaa	; 170
	.db #0x46	; 70	'F'
	.db #0xa4	; 164
	.db #0xaa	; 170
	.db #0x45	; 69	'E'
	.db #0xa4	; 164
	.db #0xaa	; 170
	.db #0xaa	; 170
	.db #0x46	; 70	'F'
	.db #0xa9	; 169
	.db #0x80	; 128
	.db #0xaa	; 170
	.db #0xaa	; 170
	.db #0xaa	; 170
	.db #0xaa	; 170
	.db #0xfa	; 250
	.db #0xff	; 255
	.db #0xaf	; 175
	.db #0xaa	; 170
	.db #0xaa	; 170
	.db #0xaa	; 170
	.db #0xaa	; 170
	.db #0xaa	; 170
	.db #0xaa	; 170
	.db #0xaa	; 170
	.db #0xaa	; 170
	.db #0xaa	; 170
	.db #0xaa	; 170
	.db #0xaa	; 170
	.db #0xaa	; 170
	.db #0xaa	; 170
	.db #0xaa	; 170
	.db #0xaa	; 170
	.db #0xaa	; 170
	.db #0xaa	; 170
	.db #0xaa	; 170
	.db #0xaa	; 170
	.db #0xaa	; 170
	.db #0xaa	; 170
	.db #0xaa	; 170
	.db #0xfa	; 250
	.db #0xff	; 255
	.db #0xaf	; 175
	.db #0xaa	; 170
	.db #0xaa	; 170
	.db #0xaa	; 170
	.db #0xaa	; 170
	.db #0xaa	; 170
	.db #0xaa	; 170
	.db #0xaa	; 170
	.db #0xaa	; 170
	.db #0xaa	; 170
	.db #0xaa	; 170
	.db #0xaa	; 170
	.db #0xaa	; 170
	.db #0xaa	; 170
	.db #0xaa	; 170
	.db #0xaa	; 170
	.db #0xaa	; 170
	.db #0xaa	; 170
	.db #0xaa	; 170
	.db #0xaa	; 170
	.db #0xaa	; 170
	.db #0xaa	; 170
	.db #0xaa	; 170
	.db #0xfe	; 254
	.db #0xff	; 255
	.db #0xbf	; 191
	.db #0xaa	; 170
	.db #0xaa	; 170
	.db #0xaa	; 170
	.db #0xaa	; 170
	.db #0xaa	; 170
	.db #0xaa	; 170
	.db #0xaa	; 170
	.db #0xaa	; 170
	.db #0xaa	; 170
	.db #0xaa	; 170
	.db #0xaa	; 170
	.db #0xaa	; 170
	.db #0xaa	; 170
	.db #0xaa	; 170
	.db #0xaa	; 170
	.db #0xaa	; 170
	.db #0xaa	; 170
	.db #0xaa	; 170
	.db #0xba	; 186
	.db #0xaa	; 170
	.db #0xae	; 174
	.db #0xaa	; 170
	.db #0xff	; 255
	.db #0xff	; 255
	.db #0xff	; 255
	.db #0xaa	; 170
	.db #0xaa	; 170
	.db #0xfa	; 250
	.db #0xaa	; 170
	.db #0xaa	; 170
	.db #0xfa	; 250
	.db #0xff	; 255
	.db #0xbf	; 191
	.db #0xaa	; 170
	.db #0xaa	; 170
	.db #0xaf	; 175
	.db #0xaa	; 170
	.db #0xaa	; 170
	.db #0xff	; 255
	.db #0xbf	; 191
	.db #0xaa	; 170
	.db #0xaa	; 170
	.db #0xaa	; 170
	.db #0xfe	; 254
	.db #0xff	; 255
	.db #0xff	; 255
	.db #0xff	; 255
	.db #0xff	; 255
	.db #0xff	; 255
	.db #0xff	; 255
	.db #0xff	; 255
	.db #0xff	; 255
	.db #0xff	; 255
	.db #0xff	; 255
	.db #0xff	; 255
	.db #0xff	; 255
	.db #0xff	; 255
	.db #0xff	; 255
	.db #0xff	; 255
	.db #0xff	; 255
	.db #0xff	; 255
	.db #0xff	; 255
	.db #0xff	; 255
	.db #0xff	; 255
	.db #0xff	; 255
	.db #0xff	; 255
	.db #0xff	; 255
	.db #0xff	; 255
	.db #0xff	; 255
	.db #0xff	; 255
	.db #0xff	; 255
	.db #0xff	; 255
	.db #0xff	; 255
	.db #0xff	; 255
	.db #0xff	; 255
	.db #0xff	; 255
	.db #0xff	; 255
	.db #0xff	; 255
	.db #0xff	; 255
	.db #0xff	; 255
	.db #0xff	; 255
	.db #0xff	; 255
	.db #0xff	; 255
	.db #0xff	; 255
	.db #0xff	; 255
	.db #0xff	; 255
	.db #0xff	; 255
	.db #0xff	; 255
	.db #0xff	; 255
	.db #0xff	; 255
	.db #0xff	; 255
	.db #0xff	; 255
	.db #0xff	; 255
	.db #0xff	; 255
	.db #0xff	; 255
	.db #0xff	; 255
	.db #0xff	; 255
	.db #0xff	; 255
	.db #0xff	; 255
	.db #0xff	; 255
	.db #0xff	; 255
	.db #0xff	; 255
	.db #0xff	; 255
	.db #0xff	; 255
	.db #0xff	; 255
	.db #0xff	; 255
	.db #0xff	; 255
	.db #0xff	; 255
	.db #0xff	; 255
	.db #0xff	; 255
	.db #0xff	; 255
	.db #0xff	; 255
	.db #0xff	; 255
	.db #0xff	; 255
	.db #0xff	; 255
	.db #0xff	; 255
	.db #0xff	; 255
	.db #0xff	; 255
	.db #0xff	; 255
	.db #0xff	; 255
	.db #0xff	; 255
	.db #0xff	; 255
	.db #0xff	; 255
	.db #0xff	; 255
	.db #0xff	; 255
	.db #0xff	; 255
	.db #0xff	; 255
	.db #0xff	; 255
	.db #0xff	; 255
	.db #0xff	; 255
	.db #0xff	; 255
	.db #0xff	; 255
	.db #0xff	; 255
	.db #0xff	; 255
	.db #0xff	; 255
	.db #0xff	; 255
	.db #0xff	; 255
	.db #0xff	; 255
	.db #0xff	; 255
	.db #0xff	; 255
	.db #0xff	; 255
	.db #0xff	; 255
	.db #0xff	; 255
	.db #0xff	; 255
	.db #0xff	; 255
	.db #0xff	; 255
	.db #0xff	; 255
	.db #0xff	; 255
	.db #0xff	; 255
	.db #0xff	; 255
	.db #0xff	; 255
	.db #0xff	; 255
	.db #0xff	; 255
	.db #0xff	; 255
	.db #0xff	; 255
	.db #0xff	; 255
	.db #0xff	; 255
	.db #0xff	; 255
	.db #0xff	; 255
	.db #0xff	; 255
	.db #0xff	; 255
	.db #0xff	; 255
	.db #0xff	; 255
	.db #0xff	; 255
	.db #0xff	; 255
	.db #0xff	; 255
	.db #0xff	; 255
	.db #0xff	; 255
	.db #0xff	; 255
	.db #0xff	; 255
	.db #0xff	; 255
	.db #0xff	; 255
	.db #0xff	; 255
	.db #0xff	; 255
	.db #0xff	; 255
	.db #0xff	; 255
	.db #0xff	; 255
	.db #0xff	; 255
	.db #0xff	; 255
	.db #0xff	; 255
	.db #0xff	; 255
	.db #0xff	; 255
	.db #0xff	; 255
	.db #0xff	; 255
	.db #0xff	; 255
	.db #0xff	; 255
	.db #0xff	; 255
	.db #0xaa	; 170
	.db #0xaa	; 170
	.db #0xff	; 255
	.db #0xff	; 255
	.db #0xff	; 255
	.db #0xff	; 255
	.db #0xff	; 255
	.db #0xff	; 255
	.db #0xff	; 255
	.db #0xff	; 255
	.db #0xff	; 255
	.db #0xff	; 255
	.db #0xff	; 255
	.db #0xff	; 255
	.db #0xff	; 255
	.db #0xff	; 255
	.db #0xff	; 255
	.db #0xff	; 255
	.db #0xff	; 255
	.db #0xff	; 255
	.db #0xff	; 255
	.db #0xff	; 255
	.db #0xff	; 255
	.db #0xff	; 255
	.db #0xbf	; 191
	.db #0xaa	; 170
	.db #0xaa	; 170
	.db #0xfe	; 254
	.db #0xff	; 255
	.db #0xff	; 255
	.db #0xff	; 255
	.db #0xff	; 255
	.db #0xff	; 255
	.db #0xff	; 255
	.db #0xff	; 255
	.db #0xff	; 255
	.db #0xff	; 255
	.db #0xff	; 255
	.db #0xff	; 255
	.db #0xff	; 255
	.db #0xff	; 255
	.db #0xff	; 255
	.db #0xff	; 255
	.db #0xff	; 255
	.db #0xff	; 255
	.db #0xff	; 255
	.db #0xff	; 255
	.db #0xff	; 255
	.db #0xff	; 255
	.db #0xaf	; 175
	.db #0xaa	; 170
	.db #0xaa	; 170
	.db #0xfa	; 250
	.db #0xff	; 255
	.db #0xff	; 255
	.db #0xff	; 255
	.db #0xff	; 255
	.db #0xff	; 255
	.db #0xff	; 255
	.db #0xff	; 255
	.db #0xff	; 255
	.db #0xff	; 255
	.db #0xff	; 255
	.db #0xff	; 255
	.db #0xff	; 255
	.db #0xff	; 255
	.db #0xff	; 255
	.db #0xff	; 255
	.db #0xff	; 255
	.db #0xff	; 255
	.db #0xff	; 255
	.db #0xff	; 255
	.db #0xff	; 255
	.db #0xff	; 255
	.db #0xab	; 171
	.db #0xaa	; 170
	.db #0xaa	; 170
	.db #0xfa	; 250
	.db #0xff	; 255
	.db #0xff	; 255
	.db #0xff	; 255
	.db #0xff	; 255
	.db #0xff	; 255
	.db #0xff	; 255
	.db #0xff	; 255
	.db #0xff	; 255
	.db #0xff	; 255
	.db #0xff	; 255
	.db #0xff	; 255
	.db #0xff	; 255
	.db #0xff	; 255
	.db #0xff	; 255
	.db #0xff	; 255
	.db #0xff	; 255
	.db #0xff	; 255
	.db #0xff	; 255
	.db #0xff	; 255
	.db #0xff	; 255
	.db #0xff	; 255
	.db #0xaa	; 170
	.db #0x2a	; 42
	.db #0xa4	; 164
	.db #0xfa	; 250
	.db #0xff	; 255
	.db #0xff	; 255
	.db #0xff	; 255
	.db #0xff	; 255
	.db #0xff	; 255
	.db #0xff	; 255
	.db #0xff	; 255
	.db #0xff	; 255
	.db #0xff	; 255
	.db #0xbf	; 191
	.db #0xaa	; 170
	.db #0xaa	; 170
	.db #0xaa	; 170
	.db #0xfe	; 254
	.db #0xab	; 171
	.db #0xfa	; 250
	.db #0xff	; 255
	.db #0xff	; 255
	.db #0xff	; 255
	.db #0xab	; 171
	.db #0xba	; 186
	.db #0xaa	; 170
	.db #0x1a	; 26
	.db #0xa0	; 160
	.db #0xfa	; 250
	.db #0xff	; 255
	.db #0xff	; 255
	.db #0xff	; 255
	.db #0xff	; 255
	.db #0xff	; 255
	.db #0xff	; 255
	.db #0xff	; 255
	.db #0xff	; 255
	.db #0xff	; 255
	.db #0xaf	; 175
	.db #0xaa	; 170
	.db #0xaa	; 170
	.db #0xaa	; 170
	.db #0xaa	; 170
	.db #0xaa	; 170
	.db #0xaa	; 170
	.db #0xfe	; 254
	.db #0xff	; 255
	.db #0xaf	; 175
	.db #0xaa	; 170
	.db #0xaa	; 170
	.db #0xaa	; 170
	.db #0x0a	; 10
	.db #0xa8	; 168
	.db #0xfa	; 250
	.db #0xff	; 255
	.db #0xff	; 255
	.db #0xff	; 255
	.db #0xff	; 255
	.db #0xff	; 255
	.db #0xff	; 255
	.db #0xff	; 255
	.db #0xff	; 255
	.db #0xff	; 255
	.db #0xab	; 171
	.db #0xaa	; 170
	.db #0xaa	; 170
	.db #0xaa	; 170
	.db #0xaa	; 170
	.db #0xaa	; 170
	.db #0xaa	; 170
	.db #0xfa	; 250
	.db #0xff	; 255
	.db #0xab	; 171
	.db #0xaa	; 170
	.db #0xaa	; 170
	.db #0x6a	; 106	'j'
	.db #0x01	; 1
	.db #0xaa	; 170
	.db #0xfa	; 250
	.db #0xff	; 255
	.db #0xff	; 255
	.db #0xff	; 255
	.db #0xff	; 255
	.db #0xff	; 255
	.db #0xff	; 255
	.db #0xff	; 255
	.db #0xff	; 255
	.db #0xff	; 255
	.db #0xab	; 171
	.db #0xaa	; 170
	.db #0xaa	; 170
	.db #0xaa	; 170
	.db #0xaa	; 170
	.db #0xaa	; 170
	.db #0xaa	; 170
	.db #0xea	; 234
	.db #0xff	; 255
	.db #0xaa	; 170
	.db #0xaa	; 170
	.db #0xaa	; 170
	.db #0x6a	; 106	'j'
	.db #0xa9	; 169
	.db #0xaa	; 170
	.db #0xfa	; 250
	.db #0xff	; 255
	.db #0xff	; 255
	.db #0xff	; 255
	.db #0xff	; 255
	.db #0xff	; 255
	.db #0xff	; 255
	.db #0xff	; 255
	.db #0xff	; 255
	.db #0xff	; 255
	.db #0xab	; 171
	.db #0x16	; 22
	.db #0x19	; 25
	.db #0xa0	; 160
	.db #0xaa	; 170
	.db #0xaa	; 170
	.db #0xaa	; 170
	.db #0xaa	; 170
	.db #0xbf	; 191
	.db #0xaa	; 170
	.db #0xaa	; 170
	.db #0xaa	; 170
	.db #0xaa	; 170
	.db #0xaa	; 170
	.db #0xaa	; 170
	.db #0xfa	; 250
	.db #0xff	; 255
	.db #0xff	; 255
	.db #0xff	; 255
	.db #0xff	; 255
	.db #0xff	; 255
	.db #0xff	; 255
	.db #0xff	; 255
	.db #0xff	; 255
	.db #0xff	; 255
	.db #0xab	; 171
	.db #0x06	; 6
	.db #0x08	; 8
	.db #0x80	; 128
	.db #0xaa	; 170
	.db #0x06	; 6
	.db #0x94	; 148
	.db #0xaa	; 170
	.db #0xaf	; 175
	.db #0xaa	; 170
	.db #0x41	; 65	'A'
	.db #0xa8	; 168
	.db #0xaa	; 170
	.db #0x40	; 64
	.db #0xa9	; 169
	.db #0xfa	; 250
	.db #0xff	; 255
	.db #0xff	; 255
	.db #0xff	; 255
	.db #0xff	; 255
	.db #0xff	; 255
	.db #0xff	; 255
	.db #0xff	; 255
	.db #0xff	; 255
	.db #0xff	; 255
	.db #0xab	; 171
	.db #0x02	; 2
	.db #0x01	; 1
	.db #0x80	; 128
	.db #0xaa	; 170
	.db #0x00	; 0
	.db #0x80	; 128
	.db #0xaa	; 170
	.db #0xaf	; 175
	.db #0x2a	; 42
	.db #0x00	; 0
	.db #0xa0	; 160
	.db #0x2a	; 42
	.db #0x00	; 0
	.db #0xa0	; 160
	.db #0xea	; 234
	.db #0xff	; 255
	.db #0xff	; 255
	.db #0xff	; 255
	.db #0xff	; 255
	.db #0xff	; 255
	.db #0xff	; 255
	.db #0xff	; 255
	.db #0xff	; 255
	.db #0xff	; 255
	.db #0xab	; 171
	.db #0x06	; 6
	.db #0x91	; 145
	.db #0x40	; 64
	.db #0x6a	; 106	'j'
	.db #0x00	; 0
	.db #0x40	; 64
	.db #0xaa	; 170
	.db #0xaf	; 175
	.db #0x1a	; 26
	.db #0x00	; 0
	.db #0x90	; 144
	.db #0x0a	; 10
	.db #0x00	; 0
	.db #0xa4	; 164
	.db #0xea	; 234
	.db #0xff	; 255
	.db #0xff	; 255
	.db #0xff	; 255
	.db #0xff	; 255
	.db #0xff	; 255
	.db #0xff	; 255
	.db #0xff	; 255
	.db #0xff	; 255
	.db #0xff	; 255
	.db #0xab	; 171
	.db #0x02	; 2
	.db #0xa1	; 161
	.db #0x40	; 64
	.db #0x2a	; 42
	.db #0x50	; 80	'P'
	.db #0x00	; 0
	.db #0xaa	; 170
	.db #0xab	; 171
	.db #0x0a	; 10
	.db #0xa0	; 160
	.db #0x92	; 146
	.db #0x0a	; 10
	.db #0x24	; 36
	.db #0xa0	; 160
	.db #0xea	; 234
	.db #0xff	; 255
	.db #0xff	; 255
	.db #0xff	; 255
	.db #0xff	; 255
	.db #0xff	; 255
	.db #0xff	; 255
	.db #0xff	; 255
	.db #0xff	; 255
	.db #0xff	; 255
	.db #0xab	; 171
	.db #0x06	; 6
	.db #0xa5	; 165
	.db #0x80	; 128
	.db #0x1a	; 26
	.db #0xa4	; 164
	.db #0x41	; 65	'A'
	.db #0xaa	; 170
	.db #0xab	; 171
	.db #0x0a	; 10
	.db #0xa8	; 168
	.db #0x96	; 150
	.db #0x06	; 6
	.db #0x68	; 104	'h'
	.db #0x90	; 144
	.db #0xea	; 234
	.db #0xff	; 255
	.db #0xff	; 255
	.db #0xff	; 255
	.db #0xff	; 255
	.db #0xff	; 255
	.db #0xff	; 255
	.db #0xff	; 255
	.db #0xff	; 255
	.db #0xff	; 255
	.db #0xab	; 171
	.db #0x02	; 2
	.db #0xa5	; 165
	.db #0x40	; 64
	.db #0x1a	; 26
	.db #0xa0	; 160
	.db #0x01	; 1
	.db #0xaa	; 170
	.db #0xab	; 171
	.db #0x06	; 6
	.db #0xa8	; 168
	.db #0x92	; 146
	.db #0x06	; 6
	.db #0x28	; 40
	.db #0x90	; 144
	.db #0xea	; 234
	.db #0xff	; 255
	.db #0xff	; 255
	.db #0xff	; 255
	.db #0xff	; 255
	.db #0xff	; 255
	.db #0xff	; 255
	.db #0xff	; 255
	.db #0xff	; 255
	.db #0xff	; 255
	.db #0xab	; 171
	.db #0x46	; 70	'F'
	.db #0xa8	; 168
	.db #0x40	; 64
	.db #0x1a	; 26
	.db #0xa4	; 164
	.db #0x01	; 1
	.db #0xaa	; 170
	.db #0xab	; 171
	.db #0x0a	; 10
	.db #0xa8	; 168
	.db #0x91	; 145
	.db #0x06	; 6
	.db #0x68	; 104	'h'
	.db #0x90	; 144
	.db #0xea	; 234
	.db #0xff	; 255
	.db #0xff	; 255
	.db #0xff	; 255
	.db #0xff	; 255
	.db #0xff	; 255
	.db #0xff	; 255
	.db #0xff	; 255
	.db #0xff	; 255
	.db #0xff	; 255
	.db #0xab	; 171
	.db #0x02	; 2
	.db #0xa8	; 168
	.db #0x40	; 64
	.db #0x1a	; 26
	.db #0xa0	; 160
	.db #0x01	; 1
	.db #0xaa	; 170
	.db #0xab	; 171
	.db #0x0a	; 10
	.db #0xa0	; 160
	.db #0x90	; 144
	.db #0x06	; 6
	.db #0x28	; 40
	.db #0x90	; 144
	.db #0xea	; 234
	.db #0xff	; 255
	.db #0xff	; 255
	.db #0xff	; 255
	.db #0xff	; 255
	.db #0xff	; 255
	.db #0xff	; 255
	.db #0xff	; 255
	.db #0xff	; 255
	.db #0xff	; 255
	.db #0xab	; 171
	.db #0x06	; 6
	.db #0xa8	; 168
	.db #0x80	; 128
	.db #0x1a	; 26
	.db #0xa4	; 164
	.db #0x41	; 65	'A'
	.db #0xaa	; 170
	.db #0xaf	; 175
	.db #0x0a	; 10
	.db #0xa0	; 160
	.db #0xa0	; 160
	.db #0x06	; 6
	.db #0x68	; 104	'h'
	.db #0x90	; 144
	.db #0xea	; 234
	.db #0xff	; 255
	.db #0xff	; 255
	.db #0xff	; 255
	.db #0xff	; 255
	.db #0xff	; 255
	.db #0xff	; 255
	.db #0xff	; 255
	.db #0xff	; 255
	.db #0xff	; 255
	.db #0xab	; 171
	.db #0x02	; 2
	.db #0xa8	; 168
	.db #0x40	; 64
	.db #0x1a	; 26
	.db #0xa0	; 160
	.db #0x02	; 2
	.db #0xaa	; 170
	.db #0xaf	; 175
	.db #0x1a	; 26
	.db #0x10	; 16
	.db #0xa0	; 160
	.db #0x02	; 2
	.db #0x28	; 40
	.db #0x90	; 144
	.db #0xea	; 234
	.db #0xff	; 255
	.db #0xff	; 255
	.db #0xff	; 255
	.db #0xff	; 255
	.db #0xff	; 255
	.db #0xff	; 255
	.db #0xff	; 255
	.db #0xff	; 255
	.db #0xff	; 255
	.db #0xab	; 171
	.db #0x06	; 6
	.db #0xa8	; 168
	.db #0x40	; 64
	.db #0x1a	; 26
	.db #0xa4	; 164
	.db #0x01	; 1
	.db #0xaa	; 170
	.db #0xaf	; 175
	.db #0x2a	; 42
	.db #0x40	; 64
	.db #0xa5	; 165
	.db #0x06	; 6
	.db #0x68	; 104	'h'
	.db #0x90	; 144
	.db #0xea	; 234
	.db #0xff	; 255
	.db #0xff	; 255
	.db #0xff	; 255
	.db #0xff	; 255
	.db #0xff	; 255
	.db #0xff	; 255
	.db #0xff	; 255
	.db #0xff	; 255
	.db #0xff	; 255
	.db #0xab	; 171
	.db #0x02	; 2
	.db #0xa8	; 168
	.db #0x40	; 64
	.db #0x1a	; 26
	.db #0xa0	; 160
	.db #0x01	; 1
	.db #0xaa	; 170
	.db #0xaf	; 175
	.db #0x2a	; 42
	.db #0x40	; 64
	.db #0xaa	; 170
	.db #0x02	; 2
	.db #0x28	; 40
	.db #0x90	; 144
	.db #0xea	; 234
	.db #0xff	; 255
	.db #0xff	; 255
	.db #0xff	; 255
	.db #0xff	; 255
	.db #0xff	; 255
	.db #0xff	; 255
	.db #0xff	; 255
	.db #0xff	; 255
	.db #0xff	; 255
	.db #0xab	; 171
	.db #0x06	; 6
	.db #0xa8	; 168
	.db #0x80	; 128
	.db #0x1a	; 26
	.db #0xa4	; 164
	.db #0x01	; 1
	.db #0xaa	; 170
	.db #0xbf	; 191
	.db #0xaa	; 170
	.db #0x40	; 64
	.db #0xaa	; 170
	.db #0x06	; 6
	.db #0x44	; 68	'D'
	.db #0x94	; 148
	.db #0xea	; 234
	.db #0xff	; 255
	.db #0xff	; 255
	.db #0xff	; 255
	.db #0xff	; 255
	.db #0xff	; 255
	.db #0xff	; 255
	.db #0xff	; 255
	.db #0xff	; 255
	.db #0xff	; 255
	.db #0xab	; 171
	.db #0x02	; 2
	.db #0xa8	; 168
	.db #0x40	; 64
	.db #0x1a	; 26
	.db #0xa0	; 160
	.db #0x02	; 2
	.db #0xaa	; 170
	.db #0xbf	; 191
	.db #0xaa	; 170
	.db #0x01	; 1
	.db #0xaa	; 170
	.db #0x02	; 2
	.db #0xa8	; 168
	.db #0xaa	; 170
	.db #0xea	; 234
	.db #0xff	; 255
	.db #0xff	; 255
	.db #0xff	; 255
	.db #0xff	; 255
	.db #0xff	; 255
	.db #0xff	; 255
	.db #0xff	; 255
	.db #0xff	; 255
	.db #0xff	; 255
	.db #0xab	; 171
	.db #0x06	; 6
	.db #0xa8	; 168
	.db #0x40	; 64
	.db #0x1a	; 26
	.db #0xa4	; 164
	.db #0x01	; 1
	.db #0xaa	; 170
	.db #0xaf	; 175
	.db #0xaa	; 170
	.db #0x02	; 2
	.db #0xa9	; 169
	.db #0x06	; 6
	.db #0xa8	; 168
	.db #0xaa	; 170
	.db #0xea	; 234
	.db #0xff	; 255
	.db #0xff	; 255
	.db #0xff	; 255
	.db #0xff	; 255
	.db #0xff	; 255
	.db #0xff	; 255
	.db #0xff	; 255
	.db #0xff	; 255
	.db #0xff	; 255
	.db #0xab	; 171
	.db #0x02	; 2
	.db #0xa8	; 168
	.db #0x40	; 64
	.db #0x1a	; 26
	.db #0xa0	; 160
	.db #0x01	; 1
	.db #0xaa	; 170
	.db #0xaf	; 175
	.db #0xaa	; 170
	.db #0x02	; 2
	.db #0xa8	; 168
	.db #0x02	; 2
	.db #0xa8	; 168
	.db #0xa2	; 162
	.db #0xea	; 234
	.db #0xff	; 255
	.db #0xff	; 255
	.db #0xff	; 255
	.db #0xff	; 255
	.db #0xff	; 255
	.db #0xff	; 255
	.db #0xff	; 255
	.db #0xff	; 255
	.db #0xff	; 255
	.db #0xab	; 171
	.db #0x06	; 6
	.db #0xa8	; 168
	.db #0x40	; 64
	.db #0x1a	; 26
	.db #0xa4	; 164
	.db #0x41	; 65	'A'
	.db #0xaa	; 170
	.db #0xaf	; 175
	.db #0xaa	; 170
	.db #0x0a	; 10
	.db #0xa8	; 168
	.db #0x06	; 6
	.db #0xa8	; 168
	.db #0xa6	; 166
	.db #0xea	; 234
	.db #0xff	; 255
	.db #0xff	; 255
	.db #0xff	; 255
	.db #0xff	; 255
	.db #0xff	; 255
	.db #0xff	; 255
	.db #0xff	; 255
	.db #0xff	; 255
	.db #0xff	; 255
	.db #0xab	; 171
	.db #0x02	; 2
	.db #0xa8	; 168
	.db #0x40	; 64
	.db #0x1a	; 26
	.db #0xa0	; 160
	.db #0x02	; 2
	.db #0xaa	; 170
	.db #0xaf	; 175
	.db #0x1a	; 26
	.db #0x00	; 0
	.db #0xa0	; 160
	.db #0x02	; 2
	.db #0xa8	; 168
	.db #0xa2	; 162
	.db #0xea	; 234
	.db #0xff	; 255
	.db #0xff	; 255
	.db #0xff	; 255
	.db #0xff	; 255
	.db #0xff	; 255
	.db #0xff	; 255
	.db #0xff	; 255
	.db #0xff	; 255
	.db #0xff	; 255
	.db #0xab	; 171
	.db #0x06	; 6
	.db #0xa8	; 168
	.db #0x40	; 64
	.db #0x1a	; 26
	.db #0xa4	; 164
	.db #0x01	; 1
	.db #0xaa	; 170
	.db #0xaf	; 175
	.db #0x0a	; 10
	.db #0x18	; 24
	.db #0xa0	; 160
	.db #0x06	; 6
	.db #0xa8	; 168
	.db #0xa6	; 166
	.db #0xea	; 234
	.db #0xff	; 255
	.db #0xff	; 255
	.db #0xff	; 255
	.db #0xff	; 255
	.db #0xff	; 255
	.db #0xff	; 255
	.db #0xff	; 255
	.db #0xff	; 255
	.db #0xff	; 255
	.db #0xab	; 171
	.db #0x02	; 2
	.db #0xa8	; 168
	.db #0x40	; 64
	.db #0x1a	; 26
	.db #0xa0	; 160
	.db #0x01	; 1
	.db #0xaa	; 170
	.db #0xaf	; 175
	.db #0x0a	; 10
	.db #0x29	; 41
	.db #0x90	; 144
	.db #0x02	; 2
	.db #0xa8	; 168
	.db #0xa2	; 162
	.db #0xea	; 234
	.db #0xff	; 255
	.db #0xff	; 255
	.db #0xff	; 255
	.db #0xff	; 255
	.db #0xff	; 255
	.db #0xff	; 255
	.db #0xff	; 255
	.db #0xff	; 255
	.db #0xff	; 255
	.db #0xab	; 171
	.db #0x06	; 6
	.db #0xa8	; 168
	.db #0x80	; 128
	.db #0x1a	; 26
	.db #0xa4	; 164
	.db #0x01	; 1
	.db #0xaa	; 170
	.db #0xaf	; 175
	.db #0x4a	; 74	'J'
	.db #0x6a	; 106	'j'
	.db #0x80	; 128
	.db #0x06	; 6
	.db #0xa8	; 168
	.db #0x96	; 150
	.db #0xea	; 234
	.db #0xff	; 255
	.db #0xff	; 255
	.db #0xff	; 255
	.db #0xff	; 255
	.db #0xff	; 255
	.db #0xff	; 255
	.db #0xff	; 255
	.db #0xff	; 255
	.db #0xff	; 255
	.db #0xab	; 171
	.db #0x02	; 2
	.db #0xa8	; 168
	.db #0x40	; 64
	.db #0x1a	; 26
	.db #0xa0	; 160
	.db #0x02	; 2
	.db #0xaa	; 170
	.db #0xaf	; 175
	.db #0x0a	; 10
	.db #0x6a	; 106	'j'
	.db #0x80	; 128
	.db #0x02	; 2
	.db #0xa8	; 168
	.db #0xa2	; 162
	.db #0xea	; 234
	.db #0xff	; 255
	.db #0xff	; 255
	.db #0xff	; 255
	.db #0xff	; 255
	.db #0xff	; 255
	.db #0xff	; 255
	.db #0xff	; 255
	.db #0xff	; 255
	.db #0xff	; 255
	.db #0xab	; 171
	.db #0x06	; 6
	.db #0xa8	; 168
	.db #0x40	; 64
	.db #0x1a	; 26
	.db #0xa4	; 164
	.db #0x01	; 1
	.db #0xaa	; 170
	.db #0xaf	; 175
	.db #0x8a	; 138
	.db #0xaa	; 170
	.db #0x80	; 128
	.db #0x06	; 6
	.db #0xa8	; 168
	.db #0xa2	; 162
	.db #0xea	; 234
	.db #0xff	; 255
	.db #0xff	; 255
	.db #0xff	; 255
	.db #0xff	; 255
	.db #0xff	; 255
	.db #0xff	; 255
	.db #0xff	; 255
	.db #0xff	; 255
	.db #0xff	; 255
	.db #0xab	; 171
	.db #0x02	; 2
	.db #0xa8	; 168
	.db #0x40	; 64
	.db #0x1a	; 26
	.db #0xa0	; 160
	.db #0x01	; 1
	.db #0xaa	; 170
	.db #0xaf	; 175
	.db #0x8a	; 138
	.db #0x6a	; 106	'j'
	.db #0x80	; 128
	.db #0x06	; 6
	.db #0xa4	; 164
	.db #0xa1	; 161
	.db #0xea	; 234
	.db #0xff	; 255
	.db #0xff	; 255
	.db #0xff	; 255
	.db #0xff	; 255
	.db #0xff	; 255
	.db #0xff	; 255
	.db #0xff	; 255
	.db #0xff	; 255
	.db #0xff	; 255
	.db #0xab	; 171
	.db #0x06	; 6
	.db #0xa8	; 168
	.db #0x80	; 128
	.db #0x1a	; 26
	.db #0x80	; 128
	.db #0x40	; 64
	.db #0xaa	; 170
	.db #0xaf	; 175
	.db #0x4a	; 74	'J'
	.db #0x59	; 89	'Y'
	.db #0x80	; 128
	.db #0x0a	; 10
	.db #0x94	; 148
	.db #0xa4	; 164
	.db #0xea	; 234
	.db #0xff	; 255
	.db #0xff	; 255
	.db #0xff	; 255
	.db #0xff	; 255
	.db #0xff	; 255
	.db #0xff	; 255
	.db #0xff	; 255
	.db #0xff	; 255
	.db #0xff	; 255
	.db #0xab	; 171
	.db #0x02	; 2
	.db #0xa8	; 168
	.db #0x40	; 64
	.db #0x2a	; 42
	.db #0x00	; 0
	.db #0x40	; 64
	.db #0xaa	; 170
	.db #0xaf	; 175
	.db #0x0a	; 10
	.db #0x00	; 0
	.db #0x90	; 144
	.db #0x0a	; 10
	.db #0x00	; 0
	.db #0xa4	; 164
	.db #0xfa	; 250
	.db #0xff	; 255
	.db #0xff	; 255
	.db #0xff	; 255
	.db #0xff	; 255
	.db #0xff	; 255
	.db #0xff	; 255
	.db #0xff	; 255
	.db #0xff	; 255
	.db #0xff	; 255
	.db #0xab	; 171
	.db #0x06	; 6
	.db #0xa8	; 168
	.db #0x40	; 64
	.db #0x6a	; 106	'j'
	.db #0x00	; 0
	.db #0x90	; 144
	.db #0xaa	; 170
	.db #0xaf	; 175
	.db #0x1a	; 26
	.db #0x00	; 0
	.db #0xa4	; 164
	.db #0x1a	; 26
	.db #0x00	; 0
	.db #0xa8	; 168
	.db #0xfa	; 250
	.db #0xff	; 255
	.db #0xff	; 255
	.db #0xff	; 255
	.db #0xff	; 255
	.db #0xff	; 255
	.db #0xff	; 255
	.db #0xff	; 255
	.db #0xff	; 255
	.db #0xff	; 255
	.db #0xab	; 171
	.db #0xaa	; 170
	.db #0xaa	; 170
	.db #0xaa	; 170
	.db #0xaa	; 170
	.db #0x01	; 1
	.db #0xa4	; 164
	.db #0xaa	; 170
	.db #0xaf	; 175
	.db #0x6a	; 106	'j'
	.db #0x00	; 0
	.db #0xa9	; 169
	.db #0x2a	; 42
	.db #0x00	; 0
	.db #0xaa	; 170
	.db #0xfa	; 250
	.db #0xff	; 255
	.db #0xff	; 255
	.db #0xff	; 255
	.db #0xff	; 255
	.db #0xff	; 255
	.db #0xff	; 255
	.db #0xff	; 255
	.db #0xff	; 255
	.db #0xff	; 255
	.db #0xab	; 171
	.db #0xaa	; 170
	.db #0xaa	; 170
	.db #0xaa	; 170
	.db #0xaa	; 170
	.db #0xaa	; 170
	.db #0xaa	; 170
	.db #0xea	; 234
	.db #0xaf	; 175
	.db #0xaa	; 170
	.db #0xaa	; 170
	.db #0xaa	; 170
	.db #0xaa	; 170
	.db #0xaa	; 170
	.db #0xaa	; 170
	.db #0xfe	; 254
	.db #0xff	; 255
	.db #0xff	; 255
	.db #0xff	; 255
	.db #0xff	; 255
	.db #0xff	; 255
	.db #0xff	; 255
	.db #0xff	; 255
	.db #0xff	; 255
	.db #0xff	; 255
	.db #0xaf	; 175
	.db #0xaa	; 170
	.db #0xaa	; 170
	.db #0xaa	; 170
	.db #0xaa	; 170
	.db #0xaa	; 170
	.db #0xaa	; 170
	.db #0xfa	; 250
	.db #0xbf	; 191
	.db #0xaa	; 170
	.db #0xaa	; 170
	.db #0xaa	; 170
	.db #0xaa	; 170
	.db #0xaa	; 170
	.db #0xaa	; 170
	.db #0xff	; 255
	.db #0xff	; 255
	.db #0xff	; 255
	.db #0xff	; 255
	.db #0xff	; 255
	.db #0xff	; 255
	.db #0xff	; 255
	.db #0xff	; 255
	.db #0xff	; 255
	.db #0xff	; 255
	.db #0xbf	; 191
	.db #0xaa	; 170
	.db #0xaa	; 170
	.db #0xaa	; 170
	.db #0xaa	; 170
	.db #0xaa	; 170
	.db #0xaa	; 170
	.db #0xfe	; 254
	.db #0xff	; 255
	.db #0xaa	; 170
	.db #0xaa	; 170
	.db #0xaa	; 170
	.db #0xaa	; 170
	.db #0xaa	; 170
	.db #0xea	; 234
	.db #0xff	; 255
	.db #0xff	; 255
	.db #0xff	; 255
	.db #0xff	; 255
	.db #0xff	; 255
	.db #0xff	; 255
	.db #0xff	; 255
	.db #0xff	; 255
	.db #0xff	; 255
	.db #0xff	; 255
	.db #0xff	; 255
	.db #0xff	; 255
	.db #0xff	; 255
	.db #0xff	; 255
	.db #0xaf	; 175
	.db #0xaa	; 170
	.db #0xaa	; 170
	.db #0xff	; 255
	.db #0xff	; 255
	.db #0xab	; 171
	.db #0xaa	; 170
	.db #0xea	; 234
	.db #0xab	; 171
	.db #0xaa	; 170
	.db #0xfa	; 250
	.db #0xff	; 255
	.db #0xff	; 255
	.db #0xff	; 255
	.db #0xff	; 255
	.db #0xff	; 255
	.db #0xff	; 255
	.db #0xff	; 255
	.db #0xff	; 255
	.db #0xff	; 255
	.db #0xff	; 255
	.db #0xff	; 255
	.db #0xff	; 255
	.db #0xff	; 255
	.db #0xff	; 255
	.db #0xff	; 255
	.db #0xff	; 255
	.db #0xff	; 255
	.db #0xff	; 255
	.db #0xff	; 255
	.db #0xff	; 255
	.db #0xff	; 255
	.db #0xff	; 255
	.db #0xff	; 255
	.db #0xff	; 255
	.db #0xff	; 255
	.db #0xff	; 255
	.db #0xff	; 255
	.db #0xff	; 255
	.db #0xff	; 255
	.db #0xff	; 255
	.db #0xff	; 255
	.db #0xff	; 255
	.db #0xff	; 255
	.db #0xff	; 255
	.db #0xff	; 255
	.db #0xff	; 255
	.db #0xff	; 255
	.db #0xff	; 255
	.db #0xff	; 255
	.db #0xff	; 255
	.db #0xff	; 255
	.db #0xff	; 255
	.db #0xff	; 255
	.db #0xff	; 255
	.db #0xff	; 255
	.db #0xff	; 255
	.db #0xff	; 255
	.db #0xff	; 255
	.db #0xff	; 255
	.db #0xff	; 255
	.db #0xff	; 255
	.db #0xff	; 255
	.db #0xff	; 255
	.db #0xff	; 255
	.db #0xff	; 255
	.db #0xff	; 255
	.db #0xff	; 255
	.db #0xff	; 255
	.db #0xff	; 255
	.db #0xff	; 255
	.db #0xff	; 255
	.db #0xff	; 255
	.db #0xff	; 255
	.db #0xff	; 255
	.db #0xff	; 255
	.db #0xff	; 255
	.db #0xff	; 255
	.db #0xff	; 255
	.db #0xff	; 255
	.db #0xff	; 255
	.db #0xff	; 255
	.db #0xff	; 255
	.db #0xff	; 255
	.db #0xff	; 255
	.db #0xff	; 255
	.db #0xff	; 255
	.db #0xff	; 255
	.db #0xff	; 255
	.db #0xff	; 255
	.db #0xff	; 255
	.db #0xff	; 255
	.db #0xff	; 255
	.db #0xff	; 255
	.db #0xff	; 255
	.db #0xff	; 255
	.db #0xff	; 255
	.db #0xff	; 255
	.db #0xff	; 255
	.db #0xff	; 255
	.db #0xff	; 255
	.db #0xff	; 255
	.db #0xff	; 255
	.db #0xff	; 255
	.db #0xff	; 255
	.db #0xff	; 255
	.db #0xff	; 255
	.db #0xff	; 255
	.db #0xff	; 255
	.db #0xff	; 255
	.db #0xff	; 255
	.db #0xff	; 255
	.db #0xff	; 255
	.db #0xff	; 255
	.db #0xff	; 255
	.db #0xff	; 255
	.db #0xff	; 255
	.db #0xff	; 255
	.db #0xff	; 255
	.db #0xff	; 255
	.db #0xff	; 255
	.db #0xff	; 255
	.db #0xab	; 171
	.db #0xaa	; 170
	.db #0xfa	; 250
	.db #0xff	; 255
	.db #0xff	; 255
	.db #0xff	; 255
	.db #0xff	; 255
	.db #0xff	; 255
	.db #0xff	; 255
	.db #0xff	; 255
	.db #0xff	; 255
	.db #0xff	; 255
	.db #0xff	; 255
	.db #0xff	; 255
	.db #0xff	; 255
	.db #0xbf	; 191
	.db #0xaa	; 170
	.db #0xea	; 234
	.db #0xff	; 255
	.db #0xff	; 255
	.db #0xff	; 255
	.db #0xff	; 255
	.db #0xff	; 255
	.db #0xff	; 255
	.db #0xff	; 255
	.db #0xaa	; 170
	.db #0xaa	; 170
	.db #0xea	; 234
	.db #0xff	; 255
	.db #0xff	; 255
	.db #0xff	; 255
	.db #0xff	; 255
	.db #0xff	; 255
	.db #0xff	; 255
	.db #0xff	; 255
	.db #0xff	; 255
	.db #0xff	; 255
	.db #0xff	; 255
	.db #0xff	; 255
	.db #0xff	; 255
	.db #0xaf	; 175
	.db #0xaa	; 170
	.db #0xaa	; 170
	.db #0xff	; 255
	.db #0xff	; 255
	.db #0xff	; 255
	.db #0xff	; 255
	.db #0xff	; 255
	.db #0xff	; 255
	.db #0xbf	; 191
	.db #0xaa	; 170
	.db #0xaa	; 170
	.db #0xaa	; 170
	.db #0xff	; 255
	.db #0xff	; 255
	.db #0xff	; 255
	.db #0xff	; 255
	.db #0xff	; 255
	.db #0xff	; 255
	.db #0xff	; 255
	.db #0xff	; 255
	.db #0xff	; 255
	.db #0xff	; 255
	.db #0xff	; 255
	.db #0xff	; 255
	.db #0xab	; 171
	.db #0xaa	; 170
	.db #0xaa	; 170
	.db #0xfe	; 254
	.db #0xff	; 255
	.db #0xff	; 255
	.db #0xff	; 255
	.db #0xff	; 255
	.db #0xff	; 255
	.db #0xbf	; 191
	.db #0xaa	; 170
	.db #0xaa	; 170
	.db #0xaa	; 170
	.db #0xff	; 255
	.db #0xff	; 255
	.db #0xff	; 255
	.db #0xff	; 255
	.db #0xff	; 255
	.db #0xff	; 255
	.db #0xff	; 255
	.db #0xff	; 255
	.db #0xff	; 255
	.db #0xff	; 255
	.db #0xff	; 255
	.db #0xff	; 255
	.db #0xab	; 171
	.db #0xaa	; 170
	.db #0xaa	; 170
	.db #0xfe	; 254
	.db #0xff	; 255
	.db #0xff	; 255
	.db #0xff	; 255
	.db #0xff	; 255
	.db #0xff	; 255
	.db #0xbf	; 191
	.db #0xaa	; 170
	.db #0x95	; 149
	.db #0xaa	; 170
	.db #0xff	; 255
	.db #0xff	; 255
	.db #0xff	; 255
	.db #0xff	; 255
	.db #0xff	; 255
	.db #0xff	; 255
	.db #0xff	; 255
	.db #0xff	; 255
	.db #0xff	; 255
	.db #0xff	; 255
	.db #0xff	; 255
	.db #0xff	; 255
	.db #0xab	; 171
	.db #0x9a	; 154
	.db #0xa9	; 169
	.db #0xfe	; 254
	.db #0xff	; 255
	.db #0xff	; 255
	.db #0xff	; 255
	.db #0xff	; 255
	.db #0xff	; 255
	.db #0xbf	; 191
	.db #0x2a	; 42
	.db #0x00	; 0
	.db #0xaa	; 170
	.db #0xfe	; 254
	.db #0xff	; 255
	.db #0xff	; 255
	.db #0xff	; 255
	.db #0xff	; 255
	.db #0xff	; 255
	.db #0xff	; 255
	.db #0xff	; 255
	.db #0xff	; 255
	.db #0xff	; 255
	.db #0xff	; 255
	.db #0xff	; 255
	.db #0xab	; 171
	.db #0x02	; 2
	.db #0xa8	; 168
	.db #0xfe	; 254
	.db #0xff	; 255
	.db #0xff	; 255
	.db #0xff	; 255
	.db #0xff	; 255
	.db #0xff	; 255
	.db #0xbf	; 191
	.db #0xaa	; 170
	.db #0x00	; 0
	.db #0xaa	; 170
	.db #0xfe	; 254
	.db #0xff	; 255
	.db #0xff	; 255
	.db #0xff	; 255
	.db #0xaa	; 170
	.db #0xfe	; 254
	.db #0xff	; 255
	.db #0xff	; 255
	.db #0xaa	; 170
	.db #0xae	; 174
	.db #0xaa	; 170
	.db #0xaa	; 170
	.db #0xaa	; 170
	.db #0x06	; 6
	.db #0xa8	; 168
	.db #0xae	; 174
	.db #0xea	; 234
	.db #0xff	; 255
	.db #0xab	; 171
	.db #0xfa	; 250
	.db #0xff	; 255
	.db #0xbf	; 191
	.db #0xaa	; 170
	.db #0x00	; 0
	.db #0xaa	; 170
	.db #0xae	; 174
	.db #0xaa	; 170
	.db #0xaa	; 170
	.db #0xab	; 171
	.db #0xaa	; 170
	.db #0xaa	; 170
	.db #0xab	; 171
	.db #0xaa	; 170
	.db #0xaa	; 170
	.db #0xaa	; 170
	.db #0xaa	; 170
	.db #0xaa	; 170
	.db #0xaa	; 170
	.db #0x02	; 2
	.db #0xa8	; 168
	.db #0xaa	; 170
	.db #0xaa	; 170
	.db #0xae	; 174
	.db #0xaa	; 170
	.db #0xaa	; 170
	.db #0xfe	; 254
	.db #0xbf	; 191
	.db #0xaa	; 170
	.db #0x01	; 1
	.db #0xa9	; 169
	.db #0xaa	; 170
	.db #0xaa	; 170
	.db #0xaa	; 170
	.db #0xaa	; 170
	.db #0xaa	; 170
	.db #0xaa	; 170
	.db #0xaa	; 170
	.db #0xaa	; 170
	.db #0xaa	; 170
	.db #0xaa	; 170
	.db #0xaa	; 170
	.db #0xaa	; 170
	.db #0xaa	; 170
	.db #0x06	; 6
	.db #0xa8	; 168
	.db #0xaa	; 170
	.db #0xaa	; 170
	.db #0xaa	; 170
	.db #0xaa	; 170
	.db #0xaa	; 170
	.db #0xfa	; 250
	.db #0xff	; 255
	.db #0xaa	; 170
	.db #0x02	; 2
	.db #0xa9	; 169
	.db #0xaa	; 170
	.db #0xaa	; 170
	.db #0xaa	; 170
	.db #0xaa	; 170
	.db #0xaa	; 170
	.db #0xaa	; 170
	.db #0xaa	; 170
	.db #0xaa	; 170
	.db #0xaa	; 170
	.db #0xaa	; 170
	.db #0xaa	; 170
	.db #0xaa	; 170
	.db #0xaa	; 170
	.db #0x02	; 2
	.db #0xa8	; 168
	.db #0xaa	; 170
	.db #0xaa	; 170
	.db #0xaa	; 170
	.db #0xaa	; 170
	.db #0xaa	; 170
	.db #0xea	; 234
	.db #0xff	; 255
	.db #0xaa	; 170
	.db #0x01	; 1
	.db #0xa8	; 168
	.db #0xaa	; 170
	.db #0xaa	; 170
	.db #0xaa	; 170
	.db #0xaa	; 170
	.db #0xaa	; 170
	.db #0xaa	; 170
	.db #0xaa	; 170
	.db #0xaa	; 170
	.db #0xaa	; 170
	.db #0xaa	; 170
	.db #0x56	; 86	'V'
	.db #0x6a	; 106	'j'
	.db #0xa5	; 165
	.db #0x06	; 6
	.db #0xa8	; 168
	.db #0xaa	; 170
	.db #0xaa	; 170
	.db #0xaa	; 170
	.db #0xaa	; 170
	.db #0xaa	; 170
	.db #0xaa	; 170
	.db #0xff	; 255
	.db #0xaa	; 170
	.db #0x01	; 1
	.db #0xa8	; 168
	.db #0xaa	; 170
	.db #0x02	; 2
	.db #0xa4	; 164
	.db #0xaa	; 170
	.db #0x00	; 0
	.db #0xa9	; 169
	.db #0x6a	; 106	'j'
	.db #0x90	; 144
	.db #0x01	; 1
	.db #0xaa	; 170
	.db #0x01	; 1
	.db #0x2a	; 42
	.db #0x90	; 144
	.db #0x02	; 2
	.db #0xa8	; 168
	.db #0x06	; 6
	.db #0x90	; 144
	.db #0xaa	; 170
	.db #0x02	; 2
	.db #0xa0	; 160
	.db #0xaa	; 170
	.db #0xff	; 255
	.db #0xaa	; 170
	.db #0x05	; 5
	.db #0xa8	; 168
	.db #0xaa	; 170
	.db #0x00	; 0
	.db #0x90	; 144
	.db #0x6a	; 106	'j'
	.db #0x00	; 0
	.db #0xa4	; 164
	.db #0x6a	; 106	'j'
	.db #0x80	; 128
	.db #0x00	; 0
	.db #0xa8	; 168
	.db #0x41	; 65	'A'
	.db #0x6a	; 106	'j'
	.db #0x90	; 144
	.db #0x06	; 6
	.db #0xa8	; 168
	.db #0x02	; 2
	.db #0x80	; 128
	.db #0xaa	; 170
	.db #0x00	; 0
	.db #0x80	; 128
	.db #0xaa	; 170
	.db #0xbf	; 191
	.db #0xaa	; 170
	.db #0x11	; 17
	.db #0xa8	; 168
	.db #0x2a	; 42
	.db #0x00	; 0
	.db #0x90	; 144
	.db #0x0a	; 10
	.db #0x00	; 0
	.db #0xa0	; 160
	.db #0x6a	; 106	'j'
	.db #0x10	; 16
	.db #0x00	; 0
	.db #0xa4	; 164
	.db #0x01	; 1
	.db #0x2a	; 42
	.db #0x90	; 144
	.db #0x02	; 2
	.db #0xa8	; 168
	.db #0x01	; 1
	.db #0x00	; 0
	.db #0x2a	; 42
	.db #0x00	; 0
	.db #0x00	; 0
	.db #0xaa	; 170
	.db #0xbf	; 191
	.db #0xaa	; 170
	.db #0x14	; 20
	.db #0xa8	; 168
	.db #0x2a	; 42
	.db #0x90	; 144
	.db #0x86	; 134
	.db #0x4a	; 74	'J'
	.db #0x1a	; 26
	.db #0x90	; 144
	.db #0x6a	; 106	'j'
	.db #0x10	; 16
	.db #0x05	; 5
	.db #0xa8	; 168
	.db #0x41	; 65	'A'
	.db #0x2a	; 42
	.db #0x90	; 144
	.db #0x06	; 6
	.db #0xa8	; 168
	.db #0x40	; 64
	.db #0x4a	; 74	'J'
	.db #0x2a	; 42
	.db #0x90	; 144
	.db #0x40	; 64
	.db #0xaa	; 170
	.db #0xbf	; 191
	.db #0xaa	; 170
	.db #0x10	; 16
	.db #0xa4	; 164
	.db #0x1a	; 26
	.db #0xa0	; 160
	.db #0x86	; 134
	.db #0x92	; 146
	.db #0x2a	; 42
	.db #0xa0	; 160
	.db #0x2a	; 42
	.db #0x10	; 16
	.db #0x0a	; 10
	.db #0xa4	; 164
	.db #0x01	; 1
	.db #0x2a	; 42
	.db #0x90	; 144
	.db #0x02	; 2
	.db #0x68	; 104	'h'
	.db #0x80	; 128
	.db #0x2a	; 42
	.db #0x2a	; 42
	.db #0xa0	; 160
	.db #0x01	; 1
	.db #0xaa	; 170
	.db #0xbf	; 191
	.db #0xaa	; 170
	.db #0x14	; 20
	.db #0xa4	; 164
	.db #0x1a	; 26
	.db #0xa4	; 164
	.db #0x86	; 134
	.db #0x96	; 150
	.db #0x2a	; 42
	.db #0x90	; 144
	.db #0x6a	; 106	'j'
	.db #0x40	; 64
	.db #0x0a	; 10
	.db #0xa4	; 164
	.db #0x41	; 65	'A'
	.db #0x6a	; 106	'j'
	.db #0x90	; 144
	.db #0x06	; 6
	.db #0x68	; 104	'h'
	.db #0x80	; 128
	.db #0x5a	; 90	'Z'
	.db #0x1a	; 26
	.db #0xa4	; 164
	.db #0x41	; 65	'A'
	.db #0xaa	; 170
	.db #0xbf	; 191
	.db #0x6a	; 106	'j'
	.db #0x10	; 16
	.db #0xa0	; 160
	.db #0x1a	; 26
	.db #0xa0	; 160
	.db #0x92	; 146
	.db #0x92	; 146
	.db #0x2a	; 42
	.db #0x90	; 144
	.db #0x6a	; 106	'j'
	.db #0x50	; 80	'P'
	.db #0x0a	; 10
	.db #0xa4	; 164
	.db #0x01	; 1
	.db #0x2a	; 42
	.db #0x90	; 144
	.db #0x02	; 2
	.db #0x68	; 104	'h'
	.db #0x80	; 128
	.db #0x0a	; 10
	.db #0x1a	; 26
	.db #0xa0	; 160
	.db #0x01	; 1
	.db #0xaa	; 170
	.db #0xbf	; 191
	.db #0x6a	; 106	'j'
	.db #0x24	; 36
	.db #0xa4	; 164
	.db #0x1a	; 26
	.db #0xa4	; 164
	.db #0x81	; 129
	.db #0x86	; 134
	.db #0x2a	; 42
	.db #0x90	; 144
	.db #0x6a	; 106	'j'
	.db #0x84	; 132
	.db #0x0a	; 10
	.db #0xa4	; 164
	.db #0x41	; 65	'A'
	.db #0x2a	; 42
	.db #0x90	; 144
	.db #0x06	; 6
	.db #0x68	; 104	'h'
	.db #0x80	; 128
	.db #0x4a	; 74	'J'
	.db #0x1a	; 26
	.db #0xa4	; 164
	.db #0x01	; 1
	.db #0xaa	; 170
	.db #0xaf	; 175
	.db #0x2a	; 42
	.db #0x24	; 36
	.db #0xa0	; 160
	.db #0x1a	; 26
	.db #0xa0	; 160
	.db #0x91	; 145
	.db #0x82	; 130
	.db #0x2a	; 42
	.db #0xa0	; 160
	.db #0x2a	; 42
	.db #0x80	; 128
	.db #0x0a	; 10
	.db #0xa4	; 164
	.db #0x01	; 1
	.db #0x2a	; 42
	.db #0x90	; 144
	.db #0x02	; 2
	.db #0x28	; 40
	.db #0x80	; 128
	.db #0x02	; 2
	.db #0x1a	; 26
	.db #0xa0	; 160
	.db #0x01	; 1
	.db #0xaa	; 170
	.db #0xaf	; 175
	.db #0x6a	; 106	'j'
	.db #0x68	; 104	'h'
	.db #0x90	; 144
	.db #0x1a	; 26
	.db #0xa4	; 164
	.db #0x90	; 144
	.db #0x46	; 70	'F'
	.db #0x2a	; 42
	.db #0x90	; 144
	.db #0x6a	; 106	'j'
	.db #0x80	; 128
	.db #0x0a	; 10
	.db #0xa4	; 164
	.db #0x41	; 65	'A'
	.db #0x6a	; 106	'j'
	.db #0x90	; 144
	.db #0x06	; 6
	.db #0x68	; 104	'h'
	.db #0x80	; 128
	.db #0x42	; 66	'B'
	.db #0x1a	; 26
	.db #0xa4	; 164
	.db #0x01	; 1
	.db #0xaa	; 170
	.db #0xaf	; 175
	.db #0x2a	; 42
	.db #0x24	; 36
	.db #0x90	; 144
	.db #0x1a	; 26
	.db #0x20	; 32
	.db #0xa0	; 160
	.db #0x06	; 6
	.db #0x29	; 41
	.db #0xa0	; 160
	.db #0x6a	; 106	'j'
	.db #0x80	; 128
	.db #0x0a	; 10
	.db #0xa4	; 164
	.db #0x01	; 1
	.db #0x2a	; 42
	.db #0x90	; 144
	.db #0x02	; 2
	.db #0x68	; 104	'h'
	.db #0x80	; 128
	.db #0x41	; 65	'A'
	.db #0x1a	; 26
	.db #0xa0	; 160
	.db #0x02	; 2
	.db #0xaa	; 170
	.db #0xaf	; 175
	.db #0x1a	; 26
	.db #0x68	; 104	'h'
	.db #0x90	; 144
	.db #0x1a	; 26
	.db #0x24	; 36
	.db #0xa0	; 160
	.db #0x0a	; 10
	.db #0x24	; 36
	.db #0x90	; 144
	.db #0x6a	; 106	'j'
	.db #0x80	; 128
	.db #0x0a	; 10
	.db #0xa4	; 164
	.db #0x41	; 65	'A'
	.db #0x2a	; 42
	.db #0x90	; 144
	.db #0x06	; 6
	.db #0x68	; 104	'h'
	.db #0x80	; 128
	.db #0x80	; 128
	.db #0x1a	; 26
	.db #0xa4	; 164
	.db #0x01	; 1
	.db #0xaa	; 170
	.db #0xaf	; 175
	.db #0x1a	; 26
	.db #0x28	; 40
	.db #0x90	; 144
	.db #0x1a	; 26
	.db #0x10	; 16
	.db #0xa1	; 161
	.db #0x0a	; 10
	.db #0x10	; 16
	.db #0xa0	; 160
	.db #0x2a	; 42
	.db #0x80	; 128
	.db #0x0a	; 10
	.db #0xa4	; 164
	.db #0x01	; 1
	.db #0x2a	; 42
	.db #0x90	; 144
	.db #0x02	; 2
	.db #0x28	; 40
	.db #0x40	; 64
	.db #0x91	; 145
	.db #0x1a	; 26
	.db #0xa0	; 160
	.db #0x01	; 1
	.db #0xaa	; 170
	.db #0xaf	; 175
	.db #0x0a	; 10
	.db #0x68	; 104	'h'
	.db #0x80	; 128
	.db #0x1a	; 26
	.db #0xa4	; 164
	.db #0xaa	; 170
	.db #0xaa	; 170
	.db #0x1a	; 26
	.db #0x90	; 144
	.db #0x6a	; 106	'j'
	.db #0x80	; 128
	.db #0x0a	; 10
	.db #0xa4	; 164
	.db #0x41	; 65	'A'
	.db #0x6a	; 106	'j'
	.db #0x90	; 144
	.db #0x06	; 6
	.db #0x68	; 104	'h'
	.db #0x80	; 128
	.db #0xaa	; 170
	.db #0x1a	; 26
	.db #0xa4	; 164
	.db #0x41	; 65	'A'
	.db #0xaa	; 170
	.db #0xab	; 171
	.db #0x0a	; 10
	.db #0x68	; 104	'h'
	.db #0x80	; 128
	.db #0x1a	; 26
	.db #0xa0	; 160
	.db #0xaa	; 170
	.db #0xaa	; 170
	.db #0x12	; 18
	.db #0x90	; 144
	.db #0x6a	; 106	'j'
	.db #0x80	; 128
	.db #0x0a	; 10
	.db #0xa4	; 164
	.db #0x01	; 1
	.db #0x2a	; 42
	.db #0x90	; 144
	.db #0x02	; 2
	.db #0x68	; 104	'h'
	.db #0x80	; 128
	.db #0xaa	; 170
	.db #0x1a	; 26
	.db #0xa0	; 160
	.db #0x02	; 2
	.db #0xaa	; 170
	.db #0xab	; 171
	.db #0x0a	; 10
	.db #0xa8	; 168
	.db #0x80	; 128
	.db #0x1a	; 26
	.db #0xa4	; 164
	.db #0x96	; 150
	.db #0xaa	; 170
	.db #0x25	; 37
	.db #0x90	; 144
	.db #0x68	; 104	'h'
	.db #0x80	; 128
	.db #0x0a	; 10
	.db #0xa4	; 164
	.db #0x41	; 65	'A'
	.db #0x2a	; 42
	.db #0x90	; 144
	.db #0x06	; 6
	.db #0x68	; 104	'h'
	.db #0x80	; 128
	.db #0x9a	; 154
	.db #0x1a	; 26
	.db #0xa4	; 164
	.db #0x01	; 1
	.db #0xaa	; 170
	.db #0xab	; 171
	.db #0x06	; 6
	.db #0x68	; 104	'h'
	.db #0x40	; 64
	.db #0x1a	; 26
	.db #0xa0	; 160
	.db #0xa2	; 162
	.db #0x2a	; 42
	.db #0x24	; 36
	.db #0xa0	; 160
	.db #0x28	; 40
	.db #0x80	; 128
	.db #0x0a	; 10
	.db #0xa4	; 164
	.db #0x01	; 1
	.db #0x2a	; 42
	.db #0x90	; 144
	.db #0x02	; 2
	.db #0x28	; 40
	.db #0x80	; 128
	.db #0x5a	; 90	'Z'
	.db #0x1a	; 26
	.db #0xa0	; 160
	.db #0x01	; 1
	.db #0xaa	; 170
	.db #0xab	; 171
	.db #0x06	; 6
	.db #0x40	; 64
	.db #0x40	; 64
	.db #0x1a	; 26
	.db #0xa4	; 164
	.db #0x96	; 150
	.db #0x1a	; 26
	.db #0x28	; 40
	.db #0x90	; 144
	.db #0x68	; 104	'h'
	.db #0x80	; 128
	.db #0x0a	; 10
	.db #0xa4	; 164
	.db #0x41	; 65	'A'
	.db #0x6a	; 106	'j'
	.db #0x90	; 144
	.db #0x06	; 6
	.db #0x68	; 104	'h'
	.db #0x80	; 128
	.db #0x8a	; 138
	.db #0x1a	; 26
	.db #0xa4	; 164
	.db #0x01	; 1
	.db #0xaa	; 170
	.db #0xab	; 171
	.db #0x02	; 2
	.db #0xa9	; 169
	.db #0x00	; 0
	.db #0x1a	; 26
	.db #0xa0	; 160
	.db #0x92	; 146
	.db #0x0a	; 10
	.db #0x29	; 41
	.db #0x90	; 144
	.db #0x68	; 104	'h'
	.db #0x80	; 128
	.db #0x0a	; 10
	.db #0xa4	; 164
	.db #0x01	; 1
	.db #0x2a	; 42
	.db #0x90	; 144
	.db #0x02	; 2
	.db #0x68	; 104	'h'
	.db #0x80	; 128
	.db #0x5a	; 90	'Z'
	.db #0x1a	; 26
	.db #0xa0	; 160
	.db #0x02	; 2
	.db #0xaa	; 170
	.db #0xaa	; 170
	.db #0x06	; 6
	.db #0xa8	; 168
	.db #0x00	; 0
	.db #0x1a	; 26
	.db #0xa4	; 164
	.db #0x96	; 150
	.db #0x0a	; 10
	.db #0x28	; 40
	.db #0x90	; 144
	.db #0x68	; 104	'h'
	.db #0x80	; 128
	.db #0x0a	; 10
	.db #0xa4	; 164
	.db #0x41	; 65	'A'
	.db #0x2a	; 42
	.db #0x90	; 144
	.db #0x06	; 6
	.db #0x68	; 104	'h'
	.db #0x80	; 128
	.db #0x4a	; 74	'J'
	.db #0x1a	; 26
	.db #0xa4	; 164
	.db #0x01	; 1
	.db #0xaa	; 170
	.db #0xaa	; 170
	.db #0x02	; 2
	.db #0xa9	; 169
	.db #0x01	; 1
	.db #0x1a	; 26
	.db #0xa0	; 160
	.db #0x92	; 146
	.db #0x06	; 6
	.db #0x28	; 40
	.db #0xa0	; 160
	.db #0x28	; 40
	.db #0x80	; 128
	.db #0x0a	; 10
	.db #0xa4	; 164
	.db #0x01	; 1
	.db #0x2a	; 42
	.db #0x90	; 144
	.db #0x02	; 2
	.db #0x28	; 40
	.db #0x80	; 128
	.db #0x5a	; 90	'Z'
	.db #0x1a	; 26
	.db #0xa0	; 160
	.db #0x01	; 1
	.db #0xaa	; 170
	.db #0xaa	; 170
	.db #0x02	; 2
	.db #0xa9	; 169
	.db #0x01	; 1
	.db #0x1a	; 26
	.db #0xa4	; 164
	.db #0x96	; 150
	.db #0x06	; 6
	.db #0x58	; 88	'X'
	.db #0x90	; 144
	.db #0x68	; 104	'h'
	.db #0x80	; 128
	.db #0x0a	; 10
	.db #0xa8	; 168
	.db #0x41	; 65	'A'
	.db #0x5a	; 90	'Z'
	.db #0x90	; 144
	.db #0x06	; 6
	.db #0x68	; 104	'h'
	.db #0x80	; 128
	.db #0x8a	; 138
	.db #0x1a	; 26
	.db #0xa4	; 164
	.db #0x41	; 65	'A'
	.db #0xaa	; 170
	.db #0xaa	; 170
	.db #0x02	; 2
	.db #0xa9	; 169
	.db #0x01	; 1
	.db #0x19	; 25
	.db #0xa0	; 160
	.db #0xa2	; 162
	.db #0x02	; 2
	.db #0x59	; 89	'Y'
	.db #0x90	; 144
	.db #0x68	; 104	'h'
	.db #0x80	; 128
	.db #0x0a	; 10
	.db #0xa4	; 164
	.db #0x01	; 1
	.db #0x1a	; 26
	.db #0x90	; 144
	.db #0x02	; 2
	.db #0x68	; 104	'h'
	.db #0x80	; 128
	.db #0x4a	; 74	'J'
	.db #0x1a	; 26
	.db #0xa0	; 160
	.db #0x01	; 1
	.db #0xaa	; 170
	.db #0xaa	; 170
	.db #0x01	; 1
	.db #0xa9	; 169
	.db #0x01	; 1
	.db #0x18	; 24
	.db #0xa0	; 160
	.db #0xa2	; 162
	.db #0x06	; 6
	.db #0x88	; 136
	.db #0x90	; 144
	.db #0x68	; 104	'h'
	.db #0x80	; 128
	.db #0x0a	; 10
	.db #0xa8	; 168
	.db #0x01	; 1
	.db #0x4a	; 74	'J'
	.db #0x90	; 144
	.db #0x06	; 6
	.db #0x68	; 104	'h'
	.db #0x80	; 128
	.db #0x8a	; 138
	.db #0x1a	; 26
	.db #0xa0	; 160
	.db #0x41	; 65	'A'
	.db #0xaa	; 170
	.db #0xaa	; 170
	.db #0x01	; 1
	.db #0xa9	; 169
	.db #0x02	; 2
	.db #0x18	; 24
	.db #0x50	; 80	'P'
	.db #0xa1	; 161
	.db #0x02	; 2
	.db #0x80	; 128
	.db #0x10	; 16
	.db #0x28	; 40
	.db #0x40	; 64
	.db #0x02	; 2
	.db #0xa8	; 168
	.db #0x01	; 1
	.db #0x00	; 0
	.db #0x90	; 144
	.db #0x02	; 2
	.db #0x68	; 104	'h'
	.db #0x00	; 0
	.db #0x82	; 130
	.db #0x2a	; 42
	.db #0x50	; 80	'P'
	.db #0x00	; 0
	.db #0xaa	; 170
	.db #0xaa	; 170
	.db #0x00	; 0
	.db #0xa9	; 169
	.db #0x02	; 2
	.db #0x68	; 104	'h'
	.db #0x00	; 0
	.db #0xa4	; 164
	.db #0x06	; 6
	.db #0x80	; 128
	.db #0x00	; 0
	.db #0x68	; 104	'h'
	.db #0x00	; 0
	.db #0x00	; 0
	.db #0xa9	; 169
	.db #0x01	; 1
	.db #0x50	; 80	'P'
	.db #0x90	; 144
	.db #0x06	; 6
	.db #0xa8	; 168
	.db #0x00	; 0
	.db #0x90	; 144
	.db #0x6a	; 106	'j'
	.db #0x00	; 0
	.db #0x80	; 128
	.db #0xaa	; 170
	.db #0xaa	; 170
	.db #0x00	; 0
	.db #0xaa	; 170
	.db #0x02	; 2
	.db #0x28	; 40
	.db #0x00	; 0
	.db #0xa8	; 168
	.db #0x06	; 6
	.db #0x90	; 144
	.db #0x01	; 1
	.db #0x69	; 105	'i'
	.db #0x00	; 0
	.db #0x00	; 0
	.db #0xaa	; 170
	.db #0x02	; 2
	.db #0x20	; 32
	.db #0x90	; 144
	.db #0x02	; 2
	.db #0xa8	; 168
	.db #0x01	; 1
	.db #0xa0	; 160
	.db #0x2a	; 42
	.db #0x00	; 0
	.db #0x90	; 144
	.db #0xaa	; 170
	.db #0xaa	; 170
	.db #0x59	; 89	'Y'
	.db #0xaa	; 170
	.db #0x5a	; 90	'Z'
	.db #0xa9	; 169
	.db #0x44	; 68	'D'
	.db #0xaa	; 170
	.db #0x1a	; 26
	.db #0xa4	; 164
	.db #0x45	; 69	'E'
	.db #0x6a	; 106	'j'
	.db #0x50	; 80	'P'
	.db #0x84	; 132
	.db #0xaa	; 170
	.db #0x0a	; 10
	.db #0xa8	; 168
	.db #0xaa	; 170
	.db #0xaa	; 170
	.db #0xaa	; 170
	.db #0x06	; 6
	.db #0xa8	; 168
	.db #0xaa	; 170
	.db #0x05	; 5
	.db #0xa8	; 168
	.db #0xaa	; 170
	.db #0xaa	; 170
	.db #0xaa	; 170
	.db #0xaa	; 170
	.db #0xaa	; 170
	.db #0xaa	; 170
	.db #0xaa	; 170
	.db #0xaa	; 170
	.db #0xaa	; 170
	.db #0xaa	; 170
	.db #0xaa	; 170
	.db #0x2a	; 42
	.db #0x80	; 128
	.db #0xaa	; 170
	.db #0xaa	; 170
	.db #0xaa	; 170
	.db #0xaa	; 170
	.db #0xaa	; 170
	.db #0xaa	; 170
	.db #0xaa	; 170
	.db #0xaa	; 170
	.db #0xaa	; 170
	.db #0xaa	; 170
	.db #0xaa	; 170
	.db #0xaa	; 170
	.db #0xea	; 234
	.db #0xaa	; 170
	.db #0xaa	; 170
	.db #0xaa	; 170
	.db #0xaa	; 170
	.db #0xaa	; 170
	.db #0xaa	; 170
	.db #0xaa	; 170
	.db #0xaa	; 170
	.db #0xaa	; 170
	.db #0xaa	; 170
	.db #0x6a	; 106	'j'
	.db #0x80	; 128
	.db #0xaa	; 170
	.db #0xaa	; 170
	.db #0xaa	; 170
	.db #0xaa	; 170
	.db #0xaa	; 170
	.db #0xaa	; 170
	.db #0xaa	; 170
	.db #0xaa	; 170
	.db #0xaa	; 170
	.db #0xaa	; 170
	.db #0xaa	; 170
	.db #0xaa	; 170
	.db #0xfa	; 250
	.db #0xab	; 171
	.db #0xaa	; 170
	.db #0xaa	; 170
	.db #0xaa	; 170
	.db #0xaa	; 170
	.db #0xaa	; 170
	.db #0xaa	; 170
	.db #0xaa	; 170
	.db #0xaa	; 170
	.db #0xaa	; 170
	.db #0x6a	; 106	'j'
	.db #0x80	; 128
	.db #0xaa	; 170
	.db #0xaa	; 170
	.db #0xaa	; 170
	.db #0xaa	; 170
	.db #0xaa	; 170
	.db #0xaa	; 170
	.db #0xaa	; 170
	.db #0xaa	; 170
	.db #0xaa	; 170
	.db #0xaa	; 170
	.db #0xaa	; 170
	.db #0xaa	; 170
	.db #0xfe	; 254
	.db #0xaf	; 175
	.db #0xaa	; 170
	.db #0xaa	; 170
	.db #0xaa	; 170
	.db #0xaa	; 170
	.db #0xaa	; 170
	.db #0xea	; 234
	.db #0xaa	; 170
	.db #0xaa	; 170
	.db #0xaa	; 170
	.db #0x6a	; 106	'j'
	.db #0x80	; 128
	.db #0xaa	; 170
	.db #0xba	; 186
	.db #0xaa	; 170
	.db #0xaa	; 170
	.db #0xff	; 255
	.db #0xff	; 255
	.db #0xaf	; 175
	.db #0xaa	; 170
	.db #0xaa	; 170
	.db #0xaf	; 175
	.db #0xaa	; 170
	.db #0xaa	; 170
	.db #0xff	; 255
	.db #0xff	; 255
	.db #0xff	; 255
	.db #0xff	; 255
	.db #0xff	; 255
	.db #0xff	; 255
	.db #0xff	; 255
	.db #0xff	; 255
	.db #0xff	; 255
	.db #0xff	; 255
	.db #0xbf	; 191
	.db #0x2a	; 42
	.db #0x80	; 128
	.db #0xea	; 234
	.db #0xff	; 255
	.db #0xff	; 255
	.db #0xff	; 255
	.db #0xff	; 255
	.db #0xff	; 255
	.db #0xff	; 255
	.db #0xff	; 255
	.db #0xff	; 255
	.db #0xff	; 255
	.db #0xff	; 255
	.db #0xff	; 255
	.db #0xff	; 255
	.db #0xff	; 255
	.db #0xff	; 255
	.db #0xff	; 255
	.db #0xff	; 255
	.db #0xff	; 255
	.db #0xff	; 255
	.db #0xff	; 255
	.db #0xff	; 255
	.db #0xff	; 255
	.db #0xbf	; 191
	.db #0xaa	; 170
	.db #0x95	; 149
	.db #0xea	; 234
	.db #0xff	; 255
	.db #0xff	; 255
	.db #0xff	; 255
	.db #0xff	; 255
	.db #0xff	; 255
	.db #0xff	; 255
	.db #0xff	; 255
	.db #0xff	; 255
	.db #0xff	; 255
	.db #0xff	; 255
	.db #0xff	; 255
	.db #0xff	; 255
	.db #0xff	; 255
	.db #0xff	; 255
	.db #0xff	; 255
	.db #0xff	; 255
	.db #0xff	; 255
	.db #0xff	; 255
	.db #0xff	; 255
	.db #0xff	; 255
	.db #0xff	; 255
	.db #0xbf	; 191
	.db #0xaa	; 170
	.db #0xaa	; 170
	.db #0xea	; 234
	.db #0xff	; 255
	.db #0xff	; 255
	.db #0xff	; 255
	.db #0xff	; 255
	.db #0xff	; 255
	.db #0xff	; 255
	.db #0xff	; 255
	.db #0xff	; 255
	.db #0xff	; 255
	.db #0xff	; 255
	.db #0xff	; 255
	.db #0xff	; 255
	.db #0xff	; 255
	.db #0xff	; 255
	.db #0xff	; 255
	.db #0xff	; 255
	.db #0xff	; 255
	.db #0xff	; 255
	.db #0xff	; 255
	.db #0xff	; 255
	.db #0xff	; 255
	.db #0xbf	; 191
	.db #0xaa	; 170
	.db #0xaa	; 170
	.db #0xea	; 234
	.db #0xff	; 255
	.db #0xff	; 255
	.db #0xff	; 255
	.db #0xff	; 255
	.db #0xff	; 255
	.db #0xff	; 255
	.db #0xff	; 255
	.db #0xff	; 255
	.db #0xff	; 255
	.db #0xff	; 255
	.db #0xff	; 255
	.db #0xff	; 255
	.db #0xff	; 255
	.db #0xff	; 255
	.db #0xff	; 255
	.db #0xff	; 255
	.db #0xff	; 255
	.db #0xff	; 255
	.db #0xff	; 255
	.db #0xff	; 255
	.db #0xff	; 255
	.db #0xff	; 255
	.db #0xaa	; 170
	.db #0xaa	; 170
	.db #0xfa	; 250
	.db #0xff	; 255
	.db #0xff	; 255
	.db #0xff	; 255
	.db #0xff	; 255
	.db #0xff	; 255
	.db #0xff	; 255
	.db #0xff	; 255
	.db #0xff	; 255
	.db #0xff	; 255
	.db #0xff	; 255
	.db #0xff	; 255
	.db #0xff	; 255
	.area _CODE_3
	.area _CABS (ABS)
