                                      1 ;--------------------------------------------------------
                                      2 ; File Created by SDCC : free open source ANSI-C Compiler
                                      3 ; Version 4.1.0 #12072 (MINGW32)
                                      4 ;--------------------------------------------------------
                                      5 	.module fire
                                      6 	.optsdcc -mgbz80
                                      7 	
                                      8 ;--------------------------------------------------------
                                      9 ; Public variables in this module
                                     10 ;--------------------------------------------------------
                                     11 	.globl b_Scene_Fire
                                     12 	.globl _Scene_Fire
                                     13 	.globl _fire_lcd
                                     14 	.globl _rand
                                     15 	.globl _set_palette
                                     16 	.globl _set_bkg_data
                                     17 	.globl _get_bkg_xy_addr
                                     18 	.globl _display_off
                                     19 	.globl _fire_wind
                                     20 	.globl _fire_scanline_offsets
                                     21 	.globl _fire_scanline_offsets_tbl
                                     22 	.globl _fire_tiles_tilemap
                                     23 	.globl _fire_tiles_tiledata
                                     24 	.globl ___bank_fire
                                     25 ;--------------------------------------------------------
                                     26 ; special function registers
                                     27 ;--------------------------------------------------------
                                     28 ;--------------------------------------------------------
                                     29 ; ram data
                                     30 ;--------------------------------------------------------
                                     31 	.area _DATA
      000000                         32 _fire_scanline_offsets::
      000000                         33 	.ds 2
      000002                         34 _fire_wind::
      000002                         35 	.ds 1
                                     36 ;--------------------------------------------------------
                                     37 ; absolute external ram data
                                     38 ;--------------------------------------------------------
                                     39 	.area _DABS (ABS)
                                     40 ;--------------------------------------------------------
                                     41 ; global & static initialisations
                                     42 ;--------------------------------------------------------
                                     43 	.area _HOME
                                     44 	.area _GSINIT
                                     45 	.area _GSFINAL
                                     46 	.area _GSINIT
                                     47 ;src\fire.c:9: const INT8 * fire_scanline_offsets = fire_scanline_offsets_tbl;
      000000 21r00r00                48 	ld	hl, #_fire_scanline_offsets
      000003 36r89                   49 	ld	(hl), #<(_fire_scanline_offsets_tbl)
      000005 23                      50 	inc	hl
      000006 36s03                   51 	ld	(hl), #>(_fire_scanline_offsets_tbl)
                                     52 ;src\fire.c:10: UINT8 fire_wind = 0;
      000008 21r02r00                53 	ld	hl, #_fire_wind
      00000B 36 00                   54 	ld	(hl), #0x00
                                     55 ;--------------------------------------------------------
                                     56 ; Home
                                     57 ;--------------------------------------------------------
                                     58 	.area _HOME
                                     59 	.area _HOME
                                     60 ;--------------------------------------------------------
                                     61 ; code
                                     62 ;--------------------------------------------------------
                                     63 	.area _CODE_4
                                     64 ;src\fire.c:12: void fire_lcd()
                                     65 ;	---------------------------------
                                     66 ; Function fire_lcd
                                     67 ; ---------------------------------
      000000                         68 _fire_lcd::
                                     69 ;src\fire.c:14: UINT8 y = LY_REG;
      000000 F0r00                   70 	ldh	a, (_LY_REG+0)
                                     71 ;src\fire.c:15: INT8 offset = (fire_scanline_offsets[y & (UBYTE)7]+1)*2;
      000002 4F                      72 	ld	c, a
      000003 E6 07                   73 	and	a, #0x07
      000005 47                      74 	ld	b, a
      000006 21r00r00                75 	ld	hl, #_fire_scanline_offsets
      000009 7E                      76 	ld	a, (hl)
      00000A 80                      77 	add	a, b
      00000B 5F                      78 	ld	e, a
      00000C 23                      79 	inc	hl
      00000D 7E                      80 	ld	a, (hl)
      00000E CE 00                   81 	adc	a, #0x00
      000010 57                      82 	ld	d, a
      000011 1A                      83 	ld	a, (de)
      000012 3C                      84 	inc	a
      000013 87                      85 	add	a, a
      000014 5F                      86 	ld	e, a
                                     87 ;src\fire.c:17: if (y<=40)
      000015 3E 28                   88 	ld	a, #0x28
      000017 91                      89 	sub	a, c
      000018 38 05                   90 	jr	C, 00102$
                                     91 ;src\fire.c:19: SCX_REG = 0;
      00001A 3E 00                   92 	ld	a, #0x00
      00001C E0r00                   93 	ldh	(_SCX_REG+0),a
      00001E C9                      94 	ret
      00001F                         95 00102$:
                                     96 ;src\fire.c:23: SCX_REG = offset * (123-y)/(12+fire_wind);
      00001F 06 00                   97 	ld	b, #0x00
      000021 3E 7B                   98 	ld	a, #0x7b
      000023 91                      99 	sub	a, c
      000024 4F                     100 	ld	c, a
      000025 3E 00                  101 	ld	a, #0x00
      000027 98                     102 	sbc	a, b
      000028 47                     103 	ld	b, a
      000029 7B                     104 	ld	a, e
      00002A 17                     105 	rla
      00002B 9F                     106 	sbc	a, a
      00002C 57                     107 	ld	d, a
      00002D C5                     108 	push	bc
      00002E D5                     109 	push	de
      00002F CDr00r00               110 	call	__mulint
      000032 E8 04                  111 	add	sp, #4
      000034 21r02r00               112 	ld	hl, #_fire_wind
      000037 4E                     113 	ld	c, (hl)
      000038 06 00                  114 	ld	b, #0x00
      00003A 21 0C 00               115 	ld	hl, #0x000c
      00003D 09                     116 	add	hl, bc
      00003E E5                     117 	push	hl
      00003F D5                     118 	push	de
      000040 CDr00r00               119 	call	__divsint
      000043 E8 04                  120 	add	sp, #4
      000045 7B                     121 	ld	a, e
      000046 E0r00                  122 	ldh	(_SCX_REG+0),a
                                    123 ;src\fire.c:25: }
      000048 C9                     124 	ret
                           000004   125 ___bank_fire	=	0x0004
      000049                        126 _fire_tiles_tiledata:
      000049 00                     127 	.db #0x00	; 0
      00004A 00                     128 	.db #0x00	; 0
      00004B 00                     129 	.db #0x00	; 0
      00004C 00                     130 	.db #0x00	; 0
      00004D 00                     131 	.db #0x00	; 0
      00004E 00                     132 	.db #0x00	; 0
      00004F 00                     133 	.db #0x00	; 0
      000050 00                     134 	.db #0x00	; 0
      000051 00                     135 	.db #0x00	; 0
      000052 00                     136 	.db #0x00	; 0
      000053 00                     137 	.db #0x00	; 0
      000054 00                     138 	.db #0x00	; 0
      000055 00                     139 	.db #0x00	; 0
      000056 00                     140 	.db #0x00	; 0
      000057 00                     141 	.db #0x00	; 0
      000058 00                     142 	.db #0x00	; 0
      000059 90                     143 	.db #0x90	; 144
      00005A 00                     144 	.db #0x00	; 0
      00005B 04                     145 	.db #0x04	; 4
      00005C 00                     146 	.db #0x00	; 0
      00005D 40                     147 	.db #0x40	; 64
      00005E 00                     148 	.db #0x00	; 0
      00005F 12                     149 	.db #0x12	; 18
      000060 00                     150 	.db #0x00	; 0
      000061 00                     151 	.db #0x00	; 0
      000062 00                     152 	.db #0x00	; 0
      000063 48                     153 	.db #0x48	; 72	'H'
      000064 00                     154 	.db #0x00	; 0
      000065 02                     155 	.db #0x02	; 2
      000066 00                     156 	.db #0x00	; 0
      000067 20                     157 	.db #0x20	; 32
      000068 00                     158 	.db #0x00	; 0
      000069 92                     159 	.db #0x92	; 146
      00006A 00                     160 	.db #0x00	; 0
      00006B 24                     161 	.db #0x24	; 36
      00006C 00                     162 	.db #0x00	; 0
      00006D 49                     163 	.db #0x49	; 73	'I'
      00006E 00                     164 	.db #0x00	; 0
      00006F 92                     165 	.db #0x92	; 146
      000070 00                     166 	.db #0x00	; 0
      000071 24                     167 	.db #0x24	; 36
      000072 00                     168 	.db #0x00	; 0
      000073 49                     169 	.db #0x49	; 73	'I'
      000074 00                     170 	.db #0x00	; 0
      000075 92                     171 	.db #0x92	; 146
      000076 00                     172 	.db #0x00	; 0
      000077 24                     173 	.db #0x24	; 36
      000078 00                     174 	.db #0x00	; 0
      000079 88                     175 	.db #0x88	; 136
      00007A 00                     176 	.db #0x00	; 0
      00007B 44                     177 	.db #0x44	; 68	'D'
      00007C 00                     178 	.db #0x00	; 0
      00007D 88                     179 	.db #0x88	; 136
      00007E 00                     180 	.db #0x00	; 0
      00007F 55                     181 	.db #0x55	; 85	'U'
      000080 00                     182 	.db #0x00	; 0
      000081 88                     183 	.db #0x88	; 136
      000082 00                     184 	.db #0x00	; 0
      000083 55                     185 	.db #0x55	; 85	'U'
      000084 00                     186 	.db #0x00	; 0
      000085 AA                     187 	.db #0xaa	; 170
      000086 00                     188 	.db #0x00	; 0
      000087 55                     189 	.db #0x55	; 85	'U'
      000088 00                     190 	.db #0x00	; 0
      000089 AA                     191 	.db #0xaa	; 170
      00008A 00                     192 	.db #0x00	; 0
      00008B 55                     193 	.db #0x55	; 85	'U'
      00008C 00                     194 	.db #0x00	; 0
      00008D AA                     195 	.db #0xaa	; 170
      00008E 00                     196 	.db #0x00	; 0
      00008F 55                     197 	.db #0x55	; 85	'U'
      000090 00                     198 	.db #0x00	; 0
      000091 AA                     199 	.db #0xaa	; 170
      000092 00                     200 	.db #0x00	; 0
      000093 55                     201 	.db #0x55	; 85	'U'
      000094 00                     202 	.db #0x00	; 0
      000095 AA                     203 	.db #0xaa	; 170
      000096 00                     204 	.db #0x00	; 0
      000097 55                     205 	.db #0x55	; 85	'U'
      000098 00                     206 	.db #0x00	; 0
      000099 5A                     207 	.db #0x5a	; 90	'Z'
      00009A 00                     208 	.db #0x00	; 0
      00009B AD                     209 	.db #0xad	; 173
      00009C 00                     210 	.db #0x00	; 0
      00009D F7                     211 	.db #0xf7	; 247
      00009E 00                     212 	.db #0x00	; 0
      00009F BB                     213 	.db #0xbb	; 187
      0000A0 00                     214 	.db #0x00	; 0
      0000A1 F7                     215 	.db #0xf7	; 247
      0000A2 00                     216 	.db #0x00	; 0
      0000A3 BF                     217 	.db #0xbf	; 191
      0000A4 00                     218 	.db #0x00	; 0
      0000A5 FD                     219 	.db #0xfd	; 253
      0000A6 00                     220 	.db #0x00	; 0
      0000A7 FF                     221 	.db #0xff	; 255
      0000A8 00                     222 	.db #0x00	; 0
      0000A9 FF                     223 	.db #0xff	; 255
      0000AA 00                     224 	.db #0x00	; 0
      0000AB FF                     225 	.db #0xff	; 255
      0000AC 00                     226 	.db #0x00	; 0
      0000AD FF                     227 	.db #0xff	; 255
      0000AE 00                     228 	.db #0x00	; 0
      0000AF FF                     229 	.db #0xff	; 255
      0000B0 00                     230 	.db #0x00	; 0
      0000B1 FF                     231 	.db #0xff	; 255
      0000B2 00                     232 	.db #0x00	; 0
      0000B3 FF                     233 	.db #0xff	; 255
      0000B4 00                     234 	.db #0x00	; 0
      0000B5 FF                     235 	.db #0xff	; 255
      0000B6 00                     236 	.db #0x00	; 0
      0000B7 FF                     237 	.db #0xff	; 255
      0000B8 00                     238 	.db #0x00	; 0
      0000B9 EE                     239 	.db #0xee	; 238
      0000BA 11                     240 	.db #0x11	; 17
      0000BB 77                     241 	.db #0x77	; 119	'w'
      0000BC 88                     242 	.db #0x88	; 136
      0000BD EE                     243 	.db #0xee	; 238
      0000BE 11                     244 	.db #0x11	; 17
      0000BF DD                     245 	.db #0xdd	; 221
      0000C0 22                     246 	.db #0x22	; 34
      0000C1 EE                     247 	.db #0xee	; 238
      0000C2 11                     248 	.db #0x11	; 17
      0000C3 5F                     249 	.db #0x5f	; 95
      0000C4 A0                     250 	.db #0xa0	; 160
      0000C5 EB                     251 	.db #0xeb	; 235
      0000C6 14                     252 	.db #0x14	; 20
      0000C7 F5                     253 	.db #0xf5	; 245
      0000C8 0A                     254 	.db #0x0a	; 10
      0000C9 AA                     255 	.db #0xaa	; 170
      0000CA 55                     256 	.db #0x55	; 85	'U'
      0000CB 55                     257 	.db #0x55	; 85	'U'
      0000CC AA                     258 	.db #0xaa	; 170
      0000CD AA                     259 	.db #0xaa	; 170
      0000CE 55                     260 	.db #0x55	; 85	'U'
      0000CF 55                     261 	.db #0x55	; 85	'U'
      0000D0 AA                     262 	.db #0xaa	; 170
      0000D1 AA                     263 	.db #0xaa	; 170
      0000D2 55                     264 	.db #0x55	; 85	'U'
      0000D3 55                     265 	.db #0x55	; 85	'U'
      0000D4 AA                     266 	.db #0xaa	; 170
      0000D5 AA                     267 	.db #0xaa	; 170
      0000D6 55                     268 	.db #0x55	; 85	'U'
      0000D7 55                     269 	.db #0x55	; 85	'U'
      0000D8 AA                     270 	.db #0xaa	; 170
      0000D9 AA                     271 	.db #0xaa	; 170
      0000DA 55                     272 	.db #0x55	; 85	'U'
      0000DB 55                     273 	.db #0x55	; 85	'U'
      0000DC AA                     274 	.db #0xaa	; 170
      0000DD 0A                     275 	.db #0x0a	; 10
      0000DE F5                     276 	.db #0xf5	; 245
      0000DF 04                     277 	.db #0x04	; 4
      0000E0 FB                     278 	.db #0xfb	; 251
      0000E1 20                     279 	.db #0x20	; 32
      0000E2 DF                     280 	.db #0xdf	; 223
      0000E3 00                     281 	.db #0x00	; 0
      0000E4 FF                     282 	.db #0xff	; 255
      0000E5 00                     283 	.db #0x00	; 0
      0000E6 FF                     284 	.db #0xff	; 255
      0000E7 00                     285 	.db #0x00	; 0
      0000E8 FF                     286 	.db #0xff	; 255
      0000E9 00                     287 	.db #0x00	; 0
      0000EA FF                     288 	.db #0xff	; 255
      0000EB 00                     289 	.db #0x00	; 0
      0000EC FF                     290 	.db #0xff	; 255
      0000ED 00                     291 	.db #0x00	; 0
      0000EE FF                     292 	.db #0xff	; 255
      0000EF 00                     293 	.db #0x00	; 0
      0000F0 FF                     294 	.db #0xff	; 255
      0000F1 00                     295 	.db #0x00	; 0
      0000F2 FF                     296 	.db #0xff	; 255
      0000F3 00                     297 	.db #0x00	; 0
      0000F4 FF                     298 	.db #0xff	; 255
      0000F5 00                     299 	.db #0x00	; 0
      0000F6 FF                     300 	.db #0xff	; 255
      0000F7 00                     301 	.db #0x00	; 0
      0000F8 FF                     302 	.db #0xff	; 255
      0000F9 11                     303 	.db #0x11	; 17
      0000FA FF                     304 	.db #0xff	; 255
      0000FB 88                     305 	.db #0x88	; 136
      0000FC FF                     306 	.db #0xff	; 255
      0000FD 11                     307 	.db #0x11	; 17
      0000FE FF                     308 	.db #0xff	; 255
      0000FF 22                     309 	.db #0x22	; 34
      000100 FF                     310 	.db #0xff	; 255
      000101 05                     311 	.db #0x05	; 5
      000102 FF                     312 	.db #0xff	; 255
      000103 80                     313 	.db #0x80	; 128
      000104 FF                     314 	.db #0xff	; 255
      000105 11                     315 	.db #0x11	; 17
      000106 FF                     316 	.db #0xff	; 255
      000107 8A                     317 	.db #0x8a	; 138
      000108 FF                     318 	.db #0xff	; 255
      000109 45                     319 	.db #0x45	; 69	'E'
      00010A FF                     320 	.db #0xff	; 255
      00010B 22                     321 	.db #0x22	; 34
      00010C FF                     322 	.db #0xff	; 255
      00010D 11                     323 	.db #0x11	; 17
      00010E FF                     324 	.db #0xff	; 255
      00010F 88                     325 	.db #0x88	; 136
      000110 FF                     326 	.db #0xff	; 255
      000111 44                     327 	.db #0x44	; 68	'D'
      000112 FF                     328 	.db #0xff	; 255
      000113 22                     329 	.db #0x22	; 34
      000114 FF                     330 	.db #0xff	; 255
      000115 11                     331 	.db #0x11	; 17
      000116 FF                     332 	.db #0xff	; 255
      000117 88                     333 	.db #0x88	; 136
      000118 FF                     334 	.db #0xff	; 255
      000119 6D                     335 	.db #0x6d	; 109	'm'
      00011A FF                     336 	.db #0xff	; 255
      00011B 92                     337 	.db #0x92	; 146
      00011C FF                     338 	.db #0xff	; 255
      00011D 6D                     339 	.db #0x6d	; 109	'm'
      00011E FF                     340 	.db #0xff	; 255
      00011F 92                     341 	.db #0x92	; 146
      000120 FF                     342 	.db #0xff	; 255
      000121 6D                     343 	.db #0x6d	; 109	'm'
      000122 FF                     344 	.db #0xff	; 255
      000123 92                     345 	.db #0x92	; 146
      000124 FF                     346 	.db #0xff	; 255
      000125 6D                     347 	.db #0x6d	; 109	'm'
      000126 FF                     348 	.db #0xff	; 255
      000127 92                     349 	.db #0x92	; 146
      000128 FF                     350 	.db #0xff	; 255
      000129 55                     351 	.db #0x55	; 85	'U'
      00012A FF                     352 	.db #0xff	; 255
      00012B AA                     353 	.db #0xaa	; 170
      00012C FF                     354 	.db #0xff	; 255
      00012D 55                     355 	.db #0x55	; 85	'U'
      00012E FF                     356 	.db #0xff	; 255
      00012F AA                     357 	.db #0xaa	; 170
      000130 FF                     358 	.db #0xff	; 255
      000131 55                     359 	.db #0x55	; 85	'U'
      000132 FF                     360 	.db #0xff	; 255
      000133 AA                     361 	.db #0xaa	; 170
      000134 FF                     362 	.db #0xff	; 255
      000135 55                     363 	.db #0x55	; 85	'U'
      000136 FF                     364 	.db #0xff	; 255
      000137 AA                     365 	.db #0xaa	; 170
      000138 FF                     366 	.db #0xff	; 255
      000139 FF                     367 	.db #0xff	; 255
      00013A FF                     368 	.db #0xff	; 255
      00013B FF                     369 	.db #0xff	; 255
      00013C FF                     370 	.db #0xff	; 255
      00013D FF                     371 	.db #0xff	; 255
      00013E FF                     372 	.db #0xff	; 255
      00013F FF                     373 	.db #0xff	; 255
      000140 FF                     374 	.db #0xff	; 255
      000141 FF                     375 	.db #0xff	; 255
      000142 FF                     376 	.db #0xff	; 255
      000143 FF                     377 	.db #0xff	; 255
      000144 FF                     378 	.db #0xff	; 255
      000145 FF                     379 	.db #0xff	; 255
      000146 FF                     380 	.db #0xff	; 255
      000147 FF                     381 	.db #0xff	; 255
      000148 FF                     382 	.db #0xff	; 255
      000149 FF                     383 	.db #0xff	; 255
      00014A FF                     384 	.db #0xff	; 255
      00014B AB                     385 	.db #0xab	; 171
      00014C 75                     386 	.db #0x75	; 117	'u'
      00014D 75                     387 	.db #0x75	; 117	'u'
      00014E 20                     388 	.db #0x20	; 32
      00014F AD                     389 	.db #0xad	; 173
      000150 20                     390 	.db #0x20	; 32
      000151 24                     391 	.db #0x24	; 36
      000152 89                     392 	.db #0x89	; 137
      000153 8C                     393 	.db #0x8c	; 140
      000154 89                     394 	.db #0x89	; 137
      000155 DD                     395 	.db #0xdd	; 221
      000156 88                     396 	.db #0x88	; 136
      000157 FF                     397 	.db #0xff	; 255
      000158 FF                     398 	.db #0xff	; 255
      000159 FF                     399 	.db #0xff	; 255
      00015A FF                     400 	.db #0xff	; 255
      00015B ED                     401 	.db #0xed	; 237
      00015C 16                     402 	.db #0x16	; 22
      00015D 76                     403 	.db #0x76	; 118	'v'
      00015E 04                     404 	.db #0x04	; 4
      00015F 36                     405 	.db #0x36	; 54	'6'
      000160 64                     406 	.db #0x64	; 100	'd'
      000161 36                     407 	.db #0x36	; 54	'6'
      000162 04                     408 	.db #0x04	; 4
      000163 D6                     409 	.db #0xd6	; 214
      000164 84                     410 	.db #0x84	; 132
      000165 21                     411 	.db #0x21	; 33
      000166 10                     412 	.db #0x10	; 16
      000167 3B                     413 	.db #0x3b	; 59
      000168 FF                     414 	.db #0xff	; 255
      000169 FF                     415 	.db #0xff	; 255
      00016A FF                     416 	.db #0xff	; 255
      00016B EB                     417 	.db #0xeb	; 235
      00016C DD                     418 	.db #0xdd	; 221
      00016D CD                     419 	.db #0xcd	; 205
      00016E 89                     420 	.db #0x89	; 137
      00016F AD                     421 	.db #0xad	; 173
      000170 89                     422 	.db #0x89	; 137
      000171 0D                     423 	.db #0x0d	; 13
      000172 A1                     424 	.db #0xa1	; 161
      000173 85                     425 	.db #0x85	; 133
      000174 01                     426 	.db #0x01	; 1
      000175 74                     427 	.db #0x74	; 116	't'
      000176 20                     428 	.db #0x20	; 32
      000177 FF                     429 	.db #0xff	; 255
      000178 FF                     430 	.db #0xff	; 255
      000179 FF                     431 	.db #0xff	; 255
      00017A FF                     432 	.db #0xff	; 255
      00017B EE                     433 	.db #0xee	; 238
      00017C F1                     434 	.db #0xf1	; 241
      00017D F3                     435 	.db #0xf3	; 243
      00017E E0                     436 	.db #0xe0	; 224
      00017F F1                     437 	.db #0xf1	; 241
      000180 E6                     438 	.db #0xe6	; 230
      000181 F3                     439 	.db #0xf3	; 243
      000182 E0                     440 	.db #0xe0	; 224
      000183 F7                     441 	.db #0xf7	; 247
      000184 E6                     442 	.db #0xe6	; 230
      000185 71                     443 	.db #0x71	; 113	'q'
      000186 60                     444 	.db #0x60	; 96
      000187 FF                     445 	.db #0xff	; 255
      000188 FF                     446 	.db #0xff	; 255
      000189 FF                     447 	.db #0xff	; 255
      00018A FF                     448 	.db #0xff	; 255
      00018B F7                     449 	.db #0xf7	; 247
      00018C 68                     450 	.db #0x68	; 104	'h'
      00018D 6C                     451 	.db #0x6c	; 108	'l'
      00018E 20                     452 	.db #0x20	; 32
      00018F 0E                     453 	.db #0x0e	; 14
      000190 24                     454 	.db #0x24	; 36
      000191 4E                     455 	.db #0x4e	; 78	'N'
      000192 04                     456 	.db #0x04	; 4
      000193 4E                     457 	.db #0x4e	; 78	'N'
      000194 44                     458 	.db #0x44	; 68	'D'
      000195 6E                     459 	.db #0x6e	; 110	'n'
      000196 44                     460 	.db #0x44	; 68	'D'
      000197 FF                     461 	.db #0xff	; 255
      000198 FF                     462 	.db #0xff	; 255
      000199 FF                     463 	.db #0xff	; 255
      00019A FF                     464 	.db #0xff	; 255
      00019B FB                     465 	.db #0xfb	; 251
      00019C 04                     466 	.db #0x04	; 4
      00019D 4C                     467 	.db #0x4c	; 76	'L'
      00019E 00                     468 	.db #0x00	; 0
      00019F C4                     469 	.db #0xc4	; 196
      0001A0 99                     470 	.db #0x99	; 153
      0001A1 CC                     471 	.db #0xcc	; 204
      0001A2 80                     472 	.db #0x80	; 128
      0001A3 DD                     473 	.db #0xdd	; 221
      0001A4 98                     474 	.db #0x98	; 152
      0001A5 C5                     475 	.db #0xc5	; 197
      0001A6 81                     476 	.db #0x81	; 129
      0001A7 FF                     477 	.db #0xff	; 255
      0001A8 FF                     478 	.db #0xff	; 255
      0001A9 FF                     479 	.db #0xff	; 255
      0001AA FF                     480 	.db #0xff	; 255
      0001AB 7D                     481 	.db #0x7d	; 125
      0001AC C3                     482 	.db #0xc3	; 195
      0001AD 61                     483 	.db #0x61	; 97	'a'
      0001AE 02                     484 	.db #0x02	; 2
      0001AF 76                     485 	.db #0x76	; 118	'v'
      0001B0 26                     486 	.db #0x26	; 38
      0001B1 F4                     487 	.db #0xf4	; 244
      0001B2 66                     488 	.db #0x66	; 102	'f'
      0001B3 36                     489 	.db #0x36	; 54	'6'
      0001B4 64                     490 	.db #0x64	; 100	'd'
      0001B5 35                     491 	.db #0x35	; 53	'5'
      0001B6 24                     492 	.db #0x24	; 36
      0001B7 FF                     493 	.db #0xff	; 255
      0001B8 FF                     494 	.db #0xff	; 255
      0001B9 FF                     495 	.db #0xff	; 255
      0001BA FF                     496 	.db #0xff	; 255
      0001BB AB                     497 	.db #0xab	; 171
      0001BC 75                     498 	.db #0x75	; 117	'u'
      0001BD 35                     499 	.db #0x35	; 53	'5'
      0001BE 20                     500 	.db #0x20	; 32
      0001BF B4                     501 	.db #0xb4	; 180
      0001C0 20                     502 	.db #0x20	; 32
      0001C1 35                     503 	.db #0x35	; 53	'5'
      0001C2 80                     504 	.db #0x80	; 128
      0001C3 15                     505 	.db #0x15	; 21
      0001C4 01                     506 	.db #0x01	; 1
      0001C5 D5                     507 	.db #0xd5	; 213
      0001C6 81                     508 	.db #0x81	; 129
      0001C7 FF                     509 	.db #0xff	; 255
      0001C8 FF                     510 	.db #0xff	; 255
      0001C9 FF                     511 	.db #0xff	; 255
      0001CA FF                     512 	.db #0xff	; 255
      0001CB CB                     513 	.db #0xcb	; 203
      0001CC B7                     514 	.db #0xb7	; 183
      0001CD B7                     515 	.db #0xb7	; 183
      0001CE 82                     516 	.db #0x82	; 130
      0001CF 32                     517 	.db #0x32	; 50	'2'
      0001D0 82                     518 	.db #0x82	; 130
      0001D1 32                     519 	.db #0x32	; 50	'2'
      0001D2 00                     520 	.db #0x00	; 0
      0001D3 35                     521 	.db #0x35	; 53	'5'
      0001D4 00                     522 	.db #0x00	; 0
      0001D5 B1                     523 	.db #0xb1	; 177
      0001D6 04                     524 	.db #0x04	; 4
      0001D7 FF                     525 	.db #0xff	; 255
      0001D8 FF                     526 	.db #0xff	; 255
      0001D9 FF                     527 	.db #0xff	; 255
      0001DA FF                     528 	.db #0xff	; 255
      0001DB DD                     529 	.db #0xdd	; 221
      0001DC 22                     530 	.db #0x22	; 34
      0001DD 66                     531 	.db #0x66	; 102	'f'
      0001DE 00                     532 	.db #0x00	; 0
      0001DF 62                     533 	.db #0x62	; 98	'b'
      0001E0 0C                     534 	.db #0x0c	; 12
      0001E1 66                     535 	.db #0x66	; 102	'f'
      0001E2 00                     536 	.db #0x00	; 0
      0001E3 6E                     537 	.db #0x6e	; 110	'n'
      0001E4 0C                     538 	.db #0x0c	; 12
      0001E5 62                     539 	.db #0x62	; 98	'b'
      0001E6 00                     540 	.db #0x00	; 0
      0001E7 FF                     541 	.db #0xff	; 255
      0001E8 FF                     542 	.db #0xff	; 255
      0001E9 FF                     543 	.db #0xff	; 255
      0001EA FF                     544 	.db #0xff	; 255
      0001EB EF                     545 	.db #0xef	; 239
      0001EC D0                     546 	.db #0xd0	; 208
      0001ED D8                     547 	.db #0xd8	; 216
      0001EE 40                     548 	.db #0x40	; 64
      0001EF 1D                     549 	.db #0x1d	; 29
      0001F0 49                     550 	.db #0x49	; 73	'I'
      0001F1 9D                     551 	.db #0x9d	; 157
      0001F2 09                     552 	.db #0x09	; 9
      0001F3 9D                     553 	.db #0x9d	; 157
      0001F4 89                     554 	.db #0x89	; 137
      0001F5 DD                     555 	.db #0xdd	; 221
      0001F6 89                     556 	.db #0x89	; 137
      0001F7 FF                     557 	.db #0xff	; 255
      0001F8 FF                     558 	.db #0xff	; 255
      0001F9 FF                     559 	.db #0xff	; 255
      0001FA FF                     560 	.db #0xff	; 255
      0001FB 7A                     561 	.db #0x7a	; 122	'z'
      0001FC F7                     562 	.db #0xf7	; 247
      0001FD 73                     563 	.db #0x73	; 115	's'
      0001FE E2                     564 	.db #0xe2	; 226
      0001FF EB                     565 	.db #0xeb	; 235
      000200 E2                     566 	.db #0xe2	; 226
      000201 C3                     567 	.db #0xc3	; 195
      000202 E8                     568 	.db #0xe8	; 232
      000203 E1                     569 	.db #0xe1	; 225
      000204 C0                     570 	.db #0xc0	; 192
      000205 DD                     571 	.db #0xdd	; 221
      000206 C8                     572 	.db #0xc8	; 200
      000207 FF                     573 	.db #0xff	; 255
      000208 FF                     574 	.db #0xff	; 255
      000209 FF                     575 	.db #0xff	; 255
      00020A FF                     576 	.db #0xff	; 255
      00020B DE                     577 	.db #0xde	; 222
      00020C 3F                     578 	.db #0x3f	; 63
      00020D 0F                     579 	.db #0x0f	; 15
      00020E 0E                     580 	.db #0x0e	; 14
      00020F 47                     581 	.db #0x47	; 71	'G'
      000210 6E                     582 	.db #0x6e	; 110	'n'
      000211 6F                     583 	.db #0x6f	; 111	'o'
      000212 66                     584 	.db #0x66	; 102	'f'
      000213 67                     585 	.db #0x67	; 103	'g'
      000214 4E                     586 	.db #0x4e	; 78	'N'
      000215 1F                     587 	.db #0x1f	; 31
      000216 0E                     588 	.db #0x0e	; 14
      000217 FF                     589 	.db #0xff	; 255
      000218 FF                     590 	.db #0xff	; 255
      000219 FF                     591 	.db #0xff	; 255
      00021A FF                     592 	.db #0xff	; 255
      00021B ED                     593 	.db #0xed	; 237
      00021C 13                     594 	.db #0x13	; 19
      00021D 31                     595 	.db #0x31	; 49	'1'
      00021E 00                     596 	.db #0x00	; 0
      00021F 71                     597 	.db #0x71	; 113	'q'
      000220 64                     598 	.db #0x64	; 100	'd'
      000221 33                     599 	.db #0x33	; 51	'3'
      000222 01                     600 	.db #0x01	; 1
      000223 74                     601 	.db #0x74	; 116	't'
      000224 61                     602 	.db #0x61	; 97	'a'
      000225 74                     603 	.db #0x74	; 116	't'
      000226 64                     604 	.db #0x64	; 100	'd'
      000227 FF                     605 	.db #0xff	; 255
      000228 FF                     606 	.db #0xff	; 255
      000229 FF                     607 	.db #0xff	; 255
      00022A FF                     608 	.db #0xff	; 255
      00022B 77                     609 	.db #0x77	; 119	'w'
      00022C 88                     610 	.db #0x88	; 136
      00022D 99                     611 	.db #0x99	; 153
      00022E 00                     612 	.db #0x00	; 0
      00022F 88                     613 	.db #0x88	; 136
      000230 33                     614 	.db #0x33	; 51	'3'
      000231 99                     615 	.db #0x99	; 153
      000232 00                     616 	.db #0x00	; 0
      000233 BB                     617 	.db #0xbb	; 187
      000234 33                     618 	.db #0x33	; 51	'3'
      000235 88                     619 	.db #0x88	; 136
      000236 00                     620 	.db #0x00	; 0
      000237 FF                     621 	.db #0xff	; 255
      000238 FF                     622 	.db #0xff	; 255
      000239 FF                     623 	.db #0xff	; 255
      00023A FF                     624 	.db #0xff	; 255
      00023B FF                     625 	.db #0xff	; 255
      00023C FF                     626 	.db #0xff	; 255
      00023D FF                     627 	.db #0xff	; 255
      00023E FF                     628 	.db #0xff	; 255
      00023F FF                     629 	.db #0xff	; 255
      000240 FF                     630 	.db #0xff	; 255
      000241 FF                     631 	.db #0xff	; 255
      000242 FF                     632 	.db #0xff	; 255
      000243 FF                     633 	.db #0xff	; 255
      000244 FF                     634 	.db #0xff	; 255
      000245 FF                     635 	.db #0xff	; 255
      000246 FF                     636 	.db #0xff	; 255
      000247 FF                     637 	.db #0xff	; 255
      000248 FF                     638 	.db #0xff	; 255
      000249 FF                     639 	.db #0xff	; 255
      00024A FF                     640 	.db #0xff	; 255
      00024B EA                     641 	.db #0xea	; 234
      00024C F5                     642 	.db #0xf5	; 245
      00024D F5                     643 	.db #0xf5	; 245
      00024E E0                     644 	.db #0xe0	; 224
      00024F F4                     645 	.db #0xf4	; 244
      000250 E0                     646 	.db #0xe0	; 224
      000251 F4                     647 	.db #0xf4	; 244
      000252 E0                     648 	.db #0xe0	; 224
      000253 F5                     649 	.db #0xf5	; 245
      000254 E0                     650 	.db #0xe0	; 224
      000255 F4                     651 	.db #0xf4	; 244
      000256 E1                     652 	.db #0xe1	; 225
      000257 FF                     653 	.db #0xff	; 255
      000258 FF                     654 	.db #0xff	; 255
      000259 FF                     655 	.db #0xff	; 255
      00025A FF                     656 	.db #0xff	; 255
      00025B FF                     657 	.db #0xff	; 255
      00025C CF                     658 	.db #0xcf	; 207
      00025D DF                     659 	.db #0xdf	; 223
      00025E 8E                     660 	.db #0x8e	; 142
      00025F 9E                     661 	.db #0x9e	; 158
      000260 8E                     662 	.db #0x8e	; 142
      000261 BC                     663 	.db #0xbc	; 188
      000262 0E                     664 	.db #0x0e	; 14
      000263 7E                     665 	.db #0x7e	; 126
      000264 0C                     666 	.db #0x0c	; 12
      000265 7D                     667 	.db #0x7d	; 125
      000266 0C                     668 	.db #0x0c	; 12
      000267 FF                     669 	.db #0xff	; 255
      000268 FF                     670 	.db #0xff	; 255
      000269 FF                     671 	.db #0xff	; 255
      00026A FF                     672 	.db #0xff	; 255
      00026B BB                     673 	.db #0xbb	; 187
      00026C 7C                     674 	.db #0x7c	; 124
      00026D 3C                     675 	.db #0x3c	; 60
      00026E 38                     676 	.db #0x38	; 56	'8'
      00026F BD                     677 	.db #0xbd	; 189
      000270 39                     678 	.db #0x39	; 57	'9'
      000271 3D                     679 	.db #0x3d	; 61
      000272 99                     680 	.db #0x99	; 153
      000273 1D                     681 	.db #0x1d	; 29
      000274 19                     682 	.db #0x19	; 25
      000275 CC                     683 	.db #0xcc	; 204
      000276 98                     684 	.db #0x98	; 152
      000277 FF                     685 	.db #0xff	; 255
      000278 FF                     686 	.db #0xff	; 255
      000279 FF                     687 	.db #0xff	; 255
      00027A FF                     688 	.db #0xff	; 255
      00027B 76                     689 	.db #0x76	; 118	'v'
      00027C ED                     690 	.db #0xed	; 237
      00027D 2C                     691 	.db #0x2c	; 44
      00027E 24                     692 	.db #0x24	; 36
      00027F 14                     693 	.db #0x14	; 20
      000280 A0                     694 	.db #0xa0	; 160
      000281 B6                     695 	.db #0xb6	; 182
      000282 80                     696 	.db #0x80	; 128
      000283 92                     697 	.db #0x92	; 146
      000284 30                     698 	.db #0x30	; 48	'0'
      000285 73                     699 	.db #0x73	; 115	's'
      000286 32                     700 	.db #0x32	; 50	'2'
      000287 FF                     701 	.db #0xff	; 255
      000288 FF                     702 	.db #0xff	; 255
      000289 FF                     703 	.db #0xff	; 255
      00028A FF                     704 	.db #0xff	; 255
      00028B DD                     705 	.db #0xdd	; 221
      00028C BB                     706 	.db #0xbb	; 187
      00028D B9                     707 	.db #0xb9	; 185
      00028E 91                     708 	.db #0x91	; 145
      00028F 15                     709 	.db #0x15	; 21
      000290 B1                     710 	.db #0xb1	; 177
      000291 A1                     711 	.db #0xa1	; 161
      000292 34                     712 	.db #0x34	; 52	'4'
      000293 70                     713 	.db #0x70	; 112	'p'
      000294 20                     714 	.db #0x20	; 32
      000295 6E                     715 	.db #0x6e	; 110	'n'
      000296 24                     716 	.db #0x24	; 36
      000297 FF                     717 	.db #0xff	; 255
      000298 FF                     718 	.db #0xff	; 255
      000299 FF                     719 	.db #0xff	; 255
      00029A FF                     720 	.db #0xff	; 255
      00029B 6B                     721 	.db #0x6b	; 107	'k'
      00029C 9C                     722 	.db #0x9c	; 156
      00029D 8C                     723 	.db #0x8c	; 140
      00029E 00                     724 	.db #0x00	; 0
      00029F 8D                     725 	.db #0x8d	; 141
      0002A0 21                     726 	.db #0x21	; 33
      0002A1 9C                     727 	.db #0x9c	; 156
      0002A2 08                     728 	.db #0x08	; 8
      0002A3 A5                     729 	.db #0xa5	; 165
      0002A4 09                     730 	.db #0x09	; 9
      0002A5 A5                     731 	.db #0xa5	; 165
      0002A6 21                     732 	.db #0x21	; 33
      0002A7 FF                     733 	.db #0xff	; 255
      0002A8 FF                     734 	.db #0xff	; 255
      0002A9 FF                     735 	.db #0xff	; 255
      0002AA FF                     736 	.db #0xff	; 255
      0002AB FD                     737 	.db #0xfd	; 253
      0002AC 7B                     738 	.db #0x7b	; 123
      0002AD F9                     739 	.db #0xf9	; 249
      0002AE 71                     740 	.db #0x71	; 113	'q'
      0002AF F5                     741 	.db #0xf5	; 245
      0002B0 F1                     742 	.db #0xf1	; 241
      0002B1 E1                     743 	.db #0xe1	; 225
      0002B2 74                     744 	.db #0x74	; 116	't'
      0002B3 F0                     745 	.db #0xf0	; 240
      0002B4 E0                     746 	.db #0xe0	; 224
      0002B5 EE                     747 	.db #0xee	; 238
      0002B6 E4                     748 	.db #0xe4	; 228
      0002B7 FF                     749 	.db #0xff	; 255
      0002B8 FF                     750 	.db #0xff	; 255
      0002B9 FF                     751 	.db #0xff	; 255
      0002BA FF                     752 	.db #0xff	; 255
      0002BB 79                     753 	.db #0x79	; 121	'y'
      0002BC B6                     754 	.db #0xb6	; 182
      0002BD B6                     755 	.db #0xb6	; 182
      0002BE 10                     756 	.db #0x10	; 16
      0002BF 86                     757 	.db #0x86	; 134
      0002C0 10                     758 	.db #0x10	; 16
      0002C1 A6                     759 	.db #0xa6	; 166
      0002C2 00                     760 	.db #0x00	; 0
      0002C3 A6                     761 	.db #0xa6	; 166
      0002C4 20                     762 	.db #0x20	; 32
      0002C5 B6                     763 	.db #0xb6	; 182
      0002C6 20                     764 	.db #0x20	; 32
      0002C7 FF                     765 	.db #0xff	; 255
      0002C8 FF                     766 	.db #0xff	; 255
      0002C9 FF                     767 	.db #0xff	; 255
      0002CA FF                     768 	.db #0xff	; 255
      0002CB BD                     769 	.db #0xbd	; 189
      0002CC 7E                     770 	.db #0x7e	; 126
      0002CD 1E                     771 	.db #0x1e	; 30
      0002CE 1C                     772 	.db #0x1c	; 28
      0002CF 8E                     773 	.db #0x8e	; 142
      0002D0 DC                     774 	.db #0xdc	; 220
      0002D1 DE                     775 	.db #0xde	; 222
      0002D2 CC                     776 	.db #0xcc	; 204
      0002D3 CE                     777 	.db #0xce	; 206
      0002D4 9C                     778 	.db #0x9c	; 156
      0002D5 3E                     779 	.db #0x3e	; 62
      0002D6 1C                     780 	.db #0x1c	; 28
      0002D7 FF                     781 	.db #0xff	; 255
      0002D8 FF                     782 	.db #0xff	; 255
      0002D9 FF                     783 	.db #0xff	; 255
      0002DA FF                     784 	.db #0xff	; 255
      0002DB DA                     785 	.db #0xda	; 218
      0002DC E7                     786 	.db #0xe7	; 231
      0002DD E1                     787 	.db #0xe1	; 225
      0002DE C2                     788 	.db #0xc2	; 194
      0002DF E9                     789 	.db #0xe9	; 233
      0002E0 C2                     790 	.db #0xc2	; 194
      0002E1 E1                     791 	.db #0xe1	; 225
      0002E2 C2                     792 	.db #0xc2	; 194
      0002E3 EB                     793 	.db #0xeb	; 235
      0002E4 C8                     794 	.db #0xc8	; 200
      0002E5 E0                     795 	.db #0xe0	; 224
      0002E6 C3                     796 	.db #0xc3	; 195
      0002E7 FF                     797 	.db #0xff	; 255
      0002E8 FF                     798 	.db #0xff	; 255
      0002E9 FF                     799 	.db #0xff	; 255
      0002EA FF                     800 	.db #0xff	; 255
      0002EB D6                     801 	.db #0xd6	; 214
      0002EC 69                     802 	.db #0x69	; 105	'i'
      0002ED 68                     803 	.db #0x68	; 104	'h'
      0002EE 40                     804 	.db #0x40	; 64
      0002EF 68                     805 	.db #0x68	; 104	'h'
      0002F0 42                     806 	.db #0x42	; 66	'B'
      0002F1 69                     807 	.db #0x69	; 105	'i'
      0002F2 40                     808 	.db #0x40	; 64
      0002F3 6A                     809 	.db #0x6a	; 106	'j'
      0002F4 40                     810 	.db #0x40	; 64
      0002F5 1A                     811 	.db #0x1a	; 26
      0002F6 02                     812 	.db #0x02	; 2
      0002F7 FF                     813 	.db #0xff	; 255
      0002F8 FF                     814 	.db #0xff	; 255
      0002F9 FF                     815 	.db #0xff	; 255
      0002FA FF                     816 	.db #0xff	; 255
      0002FB BD                     817 	.db #0xbd	; 189
      0002FC DB                     818 	.db #0xdb	; 219
      0002FD DB                     819 	.db #0xdb	; 219
      0002FE 09                     820 	.db #0x09	; 9
      0002FF C3                     821 	.db #0xc3	; 195
      000300 09                     822 	.db #0x09	; 9
      000301 D3                     823 	.db #0xd3	; 211
      000302 81                     824 	.db #0x81	; 129
      000303 53                     825 	.db #0x53	; 83	'S'
      000304 91                     826 	.db #0x91	; 145
      000305 5B                     827 	.db #0x5b	; 91
      000306 11                     828 	.db #0x11	; 17
      000307 FF                     829 	.db #0xff	; 255
      000308 FF                     830 	.db #0xff	; 255
      000309 FF                     831 	.db #0xff	; 255
      00030A FF                     832 	.db #0xff	; 255
      00030B F7                     833 	.db #0xf7	; 247
      00030C EF                     834 	.db #0xef	; 239
      00030D E7                     835 	.db #0xe7	; 231
      00030E C7                     836 	.db #0xc7	; 199
      00030F D7                     837 	.db #0xd7	; 215
      000310 C7                     838 	.db #0xc7	; 199
      000311 87                     839 	.db #0x87	; 135
      000312 D3                     840 	.db #0xd3	; 211
      000313 C3                     841 	.db #0xc3	; 195
      000314 83                     842 	.db #0x83	; 131
      000315 B9                     843 	.db #0xb9	; 185
      000316 93                     844 	.db #0x93	; 147
      000317 FF                     845 	.db #0xff	; 255
      000318 FF                     846 	.db #0xff	; 255
      000319 FF                     847 	.db #0xff	; 255
      00031A FF                     848 	.db #0xff	; 255
      00031B 7A                     849 	.db #0x7a	; 122	'z'
      00031C B7                     850 	.db #0xb7	; 183
      00031D B0                     851 	.db #0xb0	; 176
      00031E 36                     852 	.db #0x36	; 54	'6'
      00031F 82                     853 	.db #0x82	; 130
      000320 34                     854 	.db #0x34	; 52	'4'
      000321 81                     855 	.db #0x81	; 129
      000322 04                     856 	.db #0x04	; 4
      000323 B2                     857 	.db #0xb2	; 178
      000324 34                     858 	.db #0x34	; 52	'4'
      000325 B0                     859 	.db #0xb0	; 176
      000326 36                     860 	.db #0x36	; 54	'6'
      000327 FF                     861 	.db #0xff	; 255
      000328 FF                     862 	.db #0xff	; 255
      000329 FF                     863 	.db #0xff	; 255
      00032A FF                     864 	.db #0xff	; 255
      00032B F7                     865 	.db #0xf7	; 247
      00032C 3B                     866 	.db #0x3b	; 59
      00032D 1B                     867 	.db #0x1b	; 27
      00032E 13                     868 	.db #0x13	; 19
      00032F DB                     869 	.db #0xdb	; 219
      000330 C3                     870 	.db #0xc3	; 195
      000331 DB                     871 	.db #0xdb	; 219
      000332 C3                     872 	.db #0xc3	; 195
      000333 1B                     873 	.db #0x1b	; 27
      000334 C3                     874 	.db #0xc3	; 195
      000335 38                     875 	.db #0x38	; 56	'8'
      000336 10                     876 	.db #0x10	; 16
      000337 FF                     877 	.db #0xff	; 255
      000338 FF                     878 	.db #0xff	; 255
      000339 FF                     879 	.db #0xff	; 255
      00033A FF                     880 	.db #0xff	; 255
      00033B 7F                     881 	.db #0x7f	; 127
      00033C 8F                     882 	.db #0x8f	; 143
      00033D 9F                     883 	.db #0x9f	; 159
      00033E 0F                     884 	.db #0x0f	; 15
      00033F 8F                     885 	.db #0x8f	; 143
      000340 3F                     886 	.db #0x3f	; 63
      000341 9F                     887 	.db #0x9f	; 159
      000342 0F                     888 	.db #0x0f	; 15
      000343 BF                     889 	.db #0xbf	; 191
      000344 3F                     890 	.db #0x3f	; 63
      000345 8F                     891 	.db #0x8f	; 143
      000346 0F                     892 	.db #0x0f	; 15
      000347 FF                     893 	.db #0xff	; 255
      000348 FF                     894 	.db #0xff	; 255
      000349 00                     895 	.db #0x00	; 0
      00034A 00                     896 	.db #0x00	; 0
      00034B 00                     897 	.db #0x00	; 0
      00034C 00                     898 	.db #0x00	; 0
      00034D 00                     899 	.db #0x00	; 0
      00034E 00                     900 	.db #0x00	; 0
      00034F 00                     901 	.db #0x00	; 0
      000350 00                     902 	.db #0x00	; 0
      000351 00                     903 	.db #0x00	; 0
      000352 00                     904 	.db #0x00	; 0
      000353 00                     905 	.db #0x00	; 0
      000354 00                     906 	.db #0x00	; 0
      000355 00                     907 	.db #0x00	; 0
      000356 00                     908 	.db #0x00	; 0
      000357 00                     909 	.db #0x00	; 0
      000358 00                     910 	.db #0x00	; 0
      000359                        911 _fire_tiles_tilemap:
      000359 00                     912 	.db #0x00	; 0
      00035A 01                     913 	.db #0x01	; 1
      00035B 02                     914 	.db #0x02	; 2
      00035C 03                     915 	.db #0x03	; 3
      00035D 04                     916 	.db #0x04	; 4
      00035E 05                     917 	.db #0x05	; 5
      00035F 06                     918 	.db #0x06	; 6
      000360 07                     919 	.db #0x07	; 7
      000361 08                     920 	.db #0x08	; 8
      000362 09                     921 	.db #0x09	; 9
      000363 0A                     922 	.db #0x0a	; 10
      000364 0B                     923 	.db #0x0b	; 11
      000365 0C                     924 	.db #0x0c	; 12
      000366 0D                     925 	.db #0x0d	; 13
      000367 0E                     926 	.db #0x0e	; 14
      000368 0F                     927 	.db #0x0f	; 15
      000369 10                     928 	.db #0x10	; 16
      00036A 11                     929 	.db #0x11	; 17
      00036B 12                     930 	.db #0x12	; 18
      00036C 13                     931 	.db #0x13	; 19
      00036D 14                     932 	.db #0x14	; 20
      00036E 15                     933 	.db #0x15	; 21
      00036F 16                     934 	.db #0x16	; 22
      000370 17                     935 	.db #0x17	; 23
      000371 18                     936 	.db #0x18	; 24
      000372 19                     937 	.db #0x19	; 25
      000373 1A                     938 	.db #0x1a	; 26
      000374 1B                     939 	.db #0x1b	; 27
      000375 1C                     940 	.db #0x1c	; 28
      000376 1D                     941 	.db #0x1d	; 29
      000377 1E                     942 	.db #0x1e	; 30
      000378 1F                     943 	.db #0x1f	; 31
      000379 20                     944 	.db #0x20	; 32
      00037A 21                     945 	.db #0x21	; 33
      00037B 22                     946 	.db #0x22	; 34
      00037C 23                     947 	.db #0x23	; 35
      00037D 24                     948 	.db #0x24	; 36
      00037E 25                     949 	.db #0x25	; 37
      00037F 26                     950 	.db #0x26	; 38
      000380 27                     951 	.db #0x27	; 39
      000381 28                     952 	.db #0x28	; 40
      000382 29                     953 	.db #0x29	; 41
      000383 2A                     954 	.db #0x2a	; 42
      000384 2B                     955 	.db #0x2b	; 43
      000385 2C                     956 	.db #0x2c	; 44
      000386 2D                     957 	.db #0x2d	; 45
      000387 2E                     958 	.db #0x2e	; 46
      000388 2F                     959 	.db #0x2f	; 47
      000389                        960 _fire_scanline_offsets_tbl:
      000389 00                     961 	.db #0x00	;  0
      00038A 01                     962 	.db #0x01	;  1
      00038B 02                     963 	.db #0x02	;  2
      00038C 03                     964 	.db #0x03	;  3
      00038D 03                     965 	.db #0x03	;  3
      00038E 02                     966 	.db #0x02	;  2
      00038F 01                     967 	.db #0x01	;  1
      000390 00                     968 	.db #0x00	;  0
      000391 00                     969 	.db #0x00	;  0
      000392 FF                     970 	.db #0xff	; -1
      000393 FE                     971 	.db #0xfe	; -2
      000394 FD                     972 	.db #0xfd	; -3
      000395 FD                     973 	.db #0xfd	; -3
      000396 FE                     974 	.db #0xfe	; -2
      000397 FF                     975 	.db #0xff	; -1
      000398 00                     976 	.db #0x00	;  0
                                    977 ;src\fire.c:27: void Scene_Fire() BANKED
                                    978 ;	---------------------------------
                                    979 ; Function Scene_Fire
                                    980 ; ---------------------------------
                           000004   981 	b_Scene_Fire	= 4
      000399                        982 _Scene_Fire::
      000399 21 AC FB               983 	ld	hl, #-1108
      00039C 39                     984 	add	hl, sp
      00039D F9                     985 	ld	sp, hl
                                    986 ;src\fire.c:33: set_palette(PALETTE(CBLACK, CGRAY, CSILVER, CWHITE));
      00039E 21 1B 00               987 	ld	hl, #0x001b
      0003A1 E5                     988 	push	hl
      0003A2 CDr00r00               989 	call	_set_palette
      0003A5 E8 02                  990 	add	sp, #2
                                    991 ;src\fire.c:34: set_bkg_data(0, 48, fire_tiles_tiledata);
      0003A7 21r49r00               992 	ld	hl, #_fire_tiles_tiledata
      0003AA E5                     993 	push	hl
      0003AB 3E 30                  994 	ld	a, #0x30
      0003AD F5                     995 	push	af
      0003AE 33                     996 	inc	sp
      0003AF AF                     997 	xor	a, a
      0003B0 F5                     998 	push	af
      0003B1 33                     999 	inc	sp
      0003B2 CDr00r00              1000 	call	_set_bkg_data
      0003B5 E8 04                 1001 	add	sp, #4
                                   1002 ;src\fire.c:36: DISPLAY_OFF;
      0003B7 CDr00r00              1003 	call	_display_off
                                   1004 ;src\fire.c:38: for (y=0 ; y<18 ; ++y)
      0003BA F8 02                 1005 	ldhl	sp,	#2
      0003BC 7D                    1006 	ld	a, l
      0003BD 54                    1007 	ld	d, h
      0003BE 21 3A 04              1008 	ld	hl, #1082
      0003C1 39                    1009 	add	hl, sp
      0003C2 22                    1010 	ld	(hl+), a
      0003C3 72                    1011 	ld	(hl), d
      0003C4 21 D2 02              1012 	ld	hl, #722
      0003C7 39                    1013 	add	hl, sp
      0003C8 7D                    1014 	ld	a, l
      0003C9 54                    1015 	ld	d, h
      0003CA 21 3C 04              1016 	ld	hl, #1084
      0003CD 39                    1017 	add	hl, sp
      0003CE 22                    1018 	ld	(hl+), a
      0003CF 72                    1019 	ld	(hl), d
      0003D0 AF                    1020 	xor	a, a
      0003D1 21 50 04              1021 	ld	hl, #1104
      0003D4 39                    1022 	add	hl, sp
      0003D5 22                    1023 	ld	(hl+), a
      0003D6 77                    1024 	ld	(hl), a
      0003D7 AF                    1025 	xor	a, a
      0003D8 23                    1026 	inc	hl
      0003D9 77                    1027 	ld	(hl), a
                                   1028 ;src\fire.c:40: for (x=0 ; x<20 ; ++x)
      0003DA                       1029 00133$:
      0003DA 21 50 04              1030 	ld	hl, #1104
      0003DD 39                    1031 	add	hl, sp
      0003DE 2A                    1032 	ld	a, (hl+)
      0003DF 56                    1033 	ld	d, (hl)
      0003E0 87                    1034 	add	a, a
      0003E1 CB 12                 1035 	rl	d
                                   1036 ;c
      0003E3 5F                    1037 	ld	e, a
      0003E4 21 3A 04              1038 	ld	hl, #1082
      0003E7 39                    1039 	add	hl, sp
      0003E8 2A                    1040 	ld	a, (hl+)
      0003E9 66                    1041 	ld	h, (hl)
      0003EA 6F                    1042 	ld	l, a
      0003EB 19                    1043 	add	hl, de
      0003EC E5                    1044 	push	hl
      0003ED 7D                    1045 	ld	a, l
      0003EE 21 47 04              1046 	ld	hl, #1095
      0003F1 39                    1047 	add	hl, sp
      0003F2 77                    1048 	ld	(hl), a
      0003F3 E1                    1049 	pop	hl
      0003F4 7C                    1050 	ld	a, h
      0003F5 21 46 04              1051 	ld	hl, #1094
      0003F8 39                    1052 	add	hl, sp
      0003F9 32                    1053 	ld	(hl-), a
      0003FA 2A                    1054 	ld	a, (hl+)
      0003FB 5E                    1055 	ld	e, (hl)
      0003FC 23                    1056 	inc	hl
      0003FD 22                    1057 	ld	(hl+), a
      0003FE 73                    1058 	ld	(hl), e
                                   1059 ;c
      0003FF 21 3D 04              1060 	ld	hl, #1085
      000402 39                    1061 	add	hl, sp
      000403 2B                    1062 	dec	hl
      000404 2A                    1063 	ld	a, (hl+)
      000405 5F                    1064 	ld	e, a
      000406 56                    1065 	ld	d, (hl)
      000407 21 50 04              1066 	ld	hl, #1104
      00040A 39                    1067 	add	hl, sp
      00040B 2A                    1068 	ld	a, (hl+)
      00040C 66                    1069 	ld	h, (hl)
      00040D 6F                    1070 	ld	l, a
      00040E 19                    1071 	add	hl, de
      00040F E5                    1072 	push	hl
      000410 7D                    1073 	ld	a, l
      000411 21 4B 04              1074 	ld	hl, #1099
      000414 39                    1075 	add	hl, sp
      000415 77                    1076 	ld	(hl), a
      000416 E1                    1077 	pop	hl
      000417 7C                    1078 	ld	a, h
      000418 21 4A 04              1079 	ld	hl, #1098
      00041B 39                    1080 	add	hl, sp
      00041C 77                    1081 	ld	(hl), a
      00041D 21 52 04              1082 	ld	hl, #1106
      000420 39                    1083 	add	hl, sp
      000421 7E                    1084 	ld	a, (hl)
      000422 D6 02                 1085 	sub	a, #0x02
      000424 3E 01                 1086 	ld	a, #0x01
      000426 28 01                 1087 	jr	Z, 00213$
      000428 AF                    1088 	xor	a, a
      000429                       1089 00213$:
      000429 21 4B 04              1090 	ld	hl, #1099
      00042C 39                    1091 	add	hl, sp
      00042D 77                    1092 	ld	(hl), a
      00042E AF                    1093 	xor	a, a
      00042F 21 53 04              1094 	ld	hl, #1107
      000432 39                    1095 	add	hl, sp
      000433 77                    1096 	ld	(hl), a
      000434                       1097 00118$:
                                   1098 ;src\fire.c:42: *(fire_output+oy+x) = get_bkg_xy_addr(x, y);
      000434 21 53 04              1099 	ld	hl, #1107
      000437 39                    1100 	add	hl, sp
      000438 7E                    1101 	ld	a, (hl)
      000439 0E 00                 1102 	ld	c, #0x00
      00043B 87                    1103 	add	a, a
      00043C CB 11                 1104 	rl	c
      00043E 21 4C 04              1105 	ld	hl, #1100
      000441 39                    1106 	add	hl, sp
      000442 22                    1107 	ld	(hl+), a
                                   1108 ;c
      000443 79                    1109 	ld	a, c
      000444 32                    1110 	ld	(hl-), a
      000445 2A                    1111 	ld	a, (hl+)
      000446 5F                    1112 	ld	e, a
      000447 56                    1113 	ld	d, (hl)
      000448 21 47 04              1114 	ld	hl, #1095
      00044B 39                    1115 	add	hl, sp
      00044C 2A                    1116 	ld	a, (hl+)
      00044D 66                    1117 	ld	h, (hl)
      00044E 6F                    1118 	ld	l, a
      00044F 19                    1119 	add	hl, de
      000450 E5                    1120 	push	hl
      000451 7D                    1121 	ld	a, l
      000452 21 50 04              1122 	ld	hl, #1104
      000455 39                    1123 	add	hl, sp
      000456 77                    1124 	ld	(hl), a
      000457 E1                    1125 	pop	hl
      000458 7C                    1126 	ld	a, h
      000459 21 4F 04              1127 	ld	hl, #1103
      00045C 39                    1128 	add	hl, sp
      00045D 77                    1129 	ld	(hl), a
      00045E 21 52 04              1130 	ld	hl, #1106
      000461 39                    1131 	add	hl, sp
      000462 7E                    1132 	ld	a, (hl)
      000463 F5                    1133 	push	af
      000464 33                    1134 	inc	sp
      000465 23                    1135 	inc	hl
      000466 7E                    1136 	ld	a, (hl)
      000467 F5                    1137 	push	af
      000468 33                    1138 	inc	sp
      000469 CDr00r00              1139 	call	_get_bkg_xy_addr
      00046C E8 02                 1140 	add	sp, #2
      00046E 4B                    1141 	ld	c, e
      00046F 42                    1142 	ld	b, d
      000470 21 4E 04              1143 	ld	hl, #1102
      000473 39                    1144 	add	hl, sp
      000474 2A                    1145 	ld	a, (hl+)
      000475 66                    1146 	ld	h, (hl)
      000476 6F                    1147 	ld	l, a
      000477 79                    1148 	ld	a, c
      000478 22                    1149 	ld	(hl+), a
      000479 70                    1150 	ld	(hl), b
                                   1151 ;src\fire.c:43: *(fire_buffer+oy+x) = 0;
                                   1152 ;c
      00047A 21 4A 04              1153 	ld	hl, #1098
      00047D 39                    1154 	add	hl, sp
      00047E 2B                    1155 	dec	hl
      00047F 2A                    1156 	ld	a, (hl+)
      000480 5F                    1157 	ld	e, a
      000481 56                    1158 	ld	d, (hl)
      000482 21 53 04              1159 	ld	hl, #1107
      000485 39                    1160 	add	hl, sp
      000486 6E                    1161 	ld	l, (hl)
      000487 26 00                 1162 	ld	h, #0x00
      000489 19                    1163 	add	hl, de
      00048A 4D                    1164 	ld	c, l
      00048B 44                    1165 	ld	b, h
      00048C AF                    1166 	xor	a, a
      00048D 02                    1167 	ld	(bc), a
                                   1168 ;src\fire.c:45: if (y==2 && x>=2 && x<18)
      00048E 21 4B 04              1169 	ld	hl, #1099
      000491 39                    1170 	add	hl, sp
      000492 7E                    1171 	ld	a, (hl)
      000493 B7                    1172 	or	a, a
      000494 28 25                 1173 	jr	Z, 00102$
      000496 21 53 04              1174 	ld	hl, #1107
      000499 39                    1175 	add	hl, sp
      00049A 7E                    1176 	ld	a, (hl)
      00049B D6 02                 1177 	sub	a, #0x02
      00049D 38 1C                 1178 	jr	C, 00102$
      00049F 7E                    1179 	ld	a, (hl)
      0004A0 D6 12                 1180 	sub	a, #0x12
      0004A2 30 17                 1181 	jr	NC, 00102$
                                   1182 ;src\fire.c:47: **(fire_output+oy+x) = 32+x-2;
      0004A4 21 4F 04              1183 	ld	hl, #1103
      0004A7 39                    1184 	add	hl, sp
      0004A8 2B                    1185 	dec	hl
      0004A9 2A                    1186 	ld	a, (hl+)
      0004AA 5F                    1187 	ld	e, a
      0004AB 56                    1188 	ld	d, (hl)
      0004AC 1A                    1189 	ld	a, (de)
      0004AD 4F                    1190 	ld	c, a
      0004AE 13                    1191 	inc	de
      0004AF 1A                    1192 	ld	a, (de)
      0004B0 47                    1193 	ld	b, a
      0004B1 21 53 04              1194 	ld	hl, #1107
      0004B4 39                    1195 	add	hl, sp
      0004B5 7E                    1196 	ld	a, (hl)
      0004B6 C6 1E                 1197 	add	a, #0x1e
      0004B8 02                    1198 	ld	(bc), a
      0004B9 18 15                 1199 	jr	00119$
      0004BB                       1200 00102$:
                                   1201 ;src\fire.c:51: **(fire_output+oy+x) = 0;
                                   1202 ;c
      0004BB 21 46 04              1203 	ld	hl, #1094
      0004BE 39                    1204 	add	hl, sp
      0004BF 2B                    1205 	dec	hl
      0004C0 2A                    1206 	ld	a, (hl+)
      0004C1 5F                    1207 	ld	e, a
      0004C2 56                    1208 	ld	d, (hl)
      0004C3 21 4C 04              1209 	ld	hl, #1100
      0004C6 39                    1210 	add	hl, sp
      0004C7 2A                    1211 	ld	a, (hl+)
      0004C8 66                    1212 	ld	h, (hl)
      0004C9 6F                    1213 	ld	l, a
      0004CA 19                    1214 	add	hl, de
      0004CB 2A                    1215 	ld	a, (hl+)
      0004CC 4F                    1216 	ld	c, a
      0004CD 46                    1217 	ld	b, (hl)
      0004CE AF                    1218 	xor	a, a
      0004CF 02                    1219 	ld	(bc), a
      0004D0                       1220 00119$:
                                   1221 ;src\fire.c:40: for (x=0 ; x<20 ; ++x)
      0004D0 21 53 04              1222 	ld	hl, #1107
      0004D3 39                    1223 	add	hl, sp
      0004D4 34                    1224 	inc	(hl)
      0004D5 7E                    1225 	ld	a, (hl)
      0004D6 D6 14                 1226 	sub	a, #0x14
      0004D8 DAr34r04              1227 	jp	C, 00118$
                                   1228 ;src\fire.c:54: oy += 20;
                                   1229 ;c
      0004DB 2B                    1230 	dec	hl
      0004DC 2B                    1231 	dec	hl
      0004DD 2B                    1232 	dec	hl
      0004DE 2A                    1233 	ld	a, (hl+)
      0004DF 5F                    1234 	ld	e, a
      0004E0 56                    1235 	ld	d, (hl)
      0004E1 21 14 00              1236 	ld	hl, #0x0014
      0004E4 19                    1237 	add	hl, de
      0004E5 E5                    1238 	push	hl
      0004E6 7D                    1239 	ld	a, l
      0004E7 21 52 04              1240 	ld	hl, #1106
      0004EA 39                    1241 	add	hl, sp
      0004EB 77                    1242 	ld	(hl), a
      0004EC E1                    1243 	pop	hl
      0004ED 7C                    1244 	ld	a, h
      0004EE 21 51 04              1245 	ld	hl, #1105
      0004F1 39                    1246 	add	hl, sp
                                   1247 ;src\fire.c:38: for (y=0 ; y<18 ; ++y)
      0004F2 22                    1248 	ld	(hl+), a
      0004F3 34                    1249 	inc	(hl)
      0004F4 7E                    1250 	ld	a, (hl)
      0004F5 D6 12                 1251 	sub	a, #0x12
      0004F7 DArDAr03              1252 	jp	C, 00133$
                                   1253 ;src\fire.c:56: DISPLAY_ON;
      0004FA F0r00                 1254 	ldh	a, (_LCDC_REG+0)
      0004FC F6 80                 1255 	or	a, #0x80
      0004FE E0r00                 1256 	ldh	(_LCDC_REG+0),a
                                   1257 ;src\fire.c:60: while (1)
                                   1258 ;c
      000500 21 3D 04              1259 	ld	hl, #1085
      000503 39                    1260 	add	hl, sp
      000504 2B                    1261 	dec	hl
      000505 2A                    1262 	ld	a, (hl+)
      000506 5F                    1263 	ld	e, a
      000507 56                    1264 	ld	d, (hl)
      000508 21 54 01              1265 	ld	hl, #0x0154
      00050B 19                    1266 	add	hl, de
      00050C 4D                    1267 	ld	c, l
      00050D 44                    1268 	ld	b, h
                                   1269 ;c
      00050E 21 3B 04              1270 	ld	hl, #1083
      000511 39                    1271 	add	hl, sp
      000512 2B                    1272 	dec	hl
      000513 2A                    1273 	ld	a, (hl+)
      000514 5F                    1274 	ld	e, a
      000515 56                    1275 	ld	d, (hl)
      000516 21 A8 02              1276 	ld	hl, #0x02a8
      000519 19                    1277 	add	hl, de
      00051A E5                    1278 	push	hl
      00051B 7D                    1279 	ld	a, l
      00051C 21 40 04              1280 	ld	hl, #1088
      00051F 39                    1281 	add	hl, sp
      000520 77                    1282 	ld	(hl), a
      000521 E1                    1283 	pop	hl
      000522 7C                    1284 	ld	a, h
      000523 21 3F 04              1285 	ld	hl, #1087
      000526 39                    1286 	add	hl, sp
      000527 77                    1287 	ld	(hl), a
      000528 AF                    1288 	xor	a, a
      000529 21 4E 04              1289 	ld	hl, #1102
      00052C 39                    1290 	add	hl, sp
      00052D 22                    1291 	ld	(hl+), a
      00052E 77                    1292 	ld	(hl), a
      00052F                       1293 00116$:
                                   1294 ;src\fire.c:62: fire_scanline_offsets = &fire_scanline_offsets_tbl[(UBYTE)(sys_time >> 2) & 0x07u];
      00052F 21r01r00              1295 	ld	hl, #_sys_time + 1
      000532 2B                    1296 	dec	hl
      000533 2A                    1297 	ld	a, (hl+)
      000534 5F                    1298 	ld	e, a
      000535 56                    1299 	ld	d, (hl)
      000536 CB 3A                 1300 	srl	d
      000538 CB 1B                 1301 	rr	e
      00053A CB 3A                 1302 	srl	d
      00053C CB 1B                 1303 	rr	e
      00053E 7B                    1304 	ld	a, e
      00053F E6 07                 1305 	and	a, #0x07
      000541 5F                    1306 	ld	e, a
      000542 16 00                 1307 	ld	d, #0x00
      000544 21r89r03              1308 	ld	hl, #_fire_scanline_offsets_tbl
      000547 19                    1309 	add	hl, de
      000548 7D                    1310 	ld	a, l
      000549 EAr00r00              1311 	ld	(_fire_scanline_offsets), a
      00054C 7C                    1312 	ld	a, h
      00054D EAr01r00              1313 	ld	(_fire_scanline_offsets + 1), a
                                   1314 ;src\fire.c:64: for (x=6 ; x<14 ; ++x)
      000550 21 53 04              1315 	ld	hl, #1107
      000553 39                    1316 	add	hl, sp
      000554 36 06                 1317 	ld	(hl), #0x06
      000556                       1318 00122$:
                                   1319 ;src\fire.c:66: *(fire_buffer+17*20+x) = ((UINT8)rand())%21+40;
      000556 21 53 04              1320 	ld	hl, #1107
      000559 39                    1321 	add	hl, sp
      00055A 6E                    1322 	ld	l, (hl)
      00055B 26 00                 1323 	ld	h, #0x00
      00055D 09                    1324 	add	hl, bc
      00055E E5                    1325 	push	hl
      00055F 7D                    1326 	ld	a, l
      000560 21 4E 04              1327 	ld	hl, #1102
      000563 39                    1328 	add	hl, sp
      000564 77                    1329 	ld	(hl), a
      000565 E1                    1330 	pop	hl
      000566 7C                    1331 	ld	a, h
      000567 21 4D 04              1332 	ld	hl, #1101
      00056A 39                    1333 	add	hl, sp
      00056B 77                    1334 	ld	(hl), a
      00056C C5                    1335 	push	bc
      00056D CDr00r00              1336 	call	_rand
      000570 C1                    1337 	pop	bc
      000571 16 00                 1338 	ld	d, #0x00
      000573 C5                    1339 	push	bc
      000574 21 15 00              1340 	ld	hl, #0x0015
      000577 E5                    1341 	push	hl
      000578 D5                    1342 	push	de
      000579 CDr00r00              1343 	call	__modsint
      00057C E8 04                 1344 	add	sp, #4
      00057E C1                    1345 	pop	bc
      00057F 7B                    1346 	ld	a, e
      000580 C6 28                 1347 	add	a, #0x28
      000582 21 4C 04              1348 	ld	hl, #1100
      000585 39                    1349 	add	hl, sp
      000586 F5                    1350 	push	af
      000587 2A                    1351 	ld	a, (hl+)
      000588 66                    1352 	ld	h, (hl)
      000589 6F                    1353 	ld	l, a
      00058A F1                    1354 	pop	af
      00058B 77                    1355 	ld	(hl), a
                                   1356 ;src\fire.c:67: **(fire_output+17*20+x) = (*(fire_buffer+17*20+x))>>2;
      00058C 21 53 04              1357 	ld	hl, #1107
      00058F 39                    1358 	add	hl, sp
      000590 7E                    1359 	ld	a, (hl)
      000591 16 00                 1360 	ld	d, #0x00
      000593 87                    1361 	add	a, a
      000594 CB 12                 1362 	rl	d
                                   1363 ;c
      000596 5F                    1364 	ld	e, a
      000597 21 3E 04              1365 	ld	hl, #1086
      00059A 39                    1366 	add	hl, sp
      00059B 2A                    1367 	ld	a, (hl+)
      00059C 66                    1368 	ld	h, (hl)
      00059D 6F                    1369 	ld	l, a
      00059E 19                    1370 	add	hl, de
      00059F E5                    1371 	push	hl
      0005A0 7D                    1372 	ld	a, l
      0005A1 21 53 04              1373 	ld	hl, #1107
      0005A4 39                    1374 	add	hl, sp
      0005A5 77                    1375 	ld	(hl), a
      0005A6 E1                    1376 	pop	hl
      0005A7 7C                    1377 	ld	a, h
      0005A8 21 52 04              1378 	ld	hl, #1106
      0005AB 39                    1379 	add	hl, sp
      0005AC 32                    1380 	ld	(hl-), a
      0005AD 2A                    1381 	ld	a, (hl+)
      0005AE 5F                    1382 	ld	e, a
      0005AF 56                    1383 	ld	d, (hl)
      0005B0 1A                    1384 	ld	a, (de)
      0005B1 2B                    1385 	dec	hl
      0005B2 22                    1386 	ld	(hl+), a
      0005B3 13                    1387 	inc	de
      0005B4 1A                    1388 	ld	a, (de)
      0005B5 77                    1389 	ld	(hl), a
      0005B6 21 4D 04              1390 	ld	hl, #1101
      0005B9 39                    1391 	add	hl, sp
      0005BA 2B                    1392 	dec	hl
      0005BB 2A                    1393 	ld	a, (hl+)
      0005BC 5F                    1394 	ld	e, a
      0005BD 56                    1395 	ld	d, (hl)
      0005BE 1A                    1396 	ld	a, (de)
      0005BF 0F                    1397 	rrca
      0005C0 0F                    1398 	rrca
      0005C1 E6 3F                 1399 	and	a, #0x3f
      0005C3 21 51 04              1400 	ld	hl, #1105
      0005C6 39                    1401 	add	hl, sp
      0005C7 F5                    1402 	push	af
      0005C8 2A                    1403 	ld	a, (hl+)
      0005C9 66                    1404 	ld	h, (hl)
      0005CA 6F                    1405 	ld	l, a
      0005CB F1                    1406 	pop	af
      0005CC 77                    1407 	ld	(hl), a
                                   1408 ;src\fire.c:68: fire_lcd();
      0005CD C5                    1409 	push	bc
      0005CE CDr00r00              1410 	call	_fire_lcd
      0005D1 C1                    1411 	pop	bc
                                   1412 ;src\fire.c:64: for (x=6 ; x<14 ; ++x)
      0005D2 21 53 04              1413 	ld	hl, #1107
      0005D5 39                    1414 	add	hl, sp
      0005D6 34                    1415 	inc	(hl)
      0005D7 7E                    1416 	ld	a, (hl)
      0005D8 D6 0E                 1417 	sub	a, #0x0e
      0005DA DAr56r05              1418 	jp	C, 00122$
                                   1419 ;src\fire.c:72: for (y=6 ; y<17 ; ++y)
      0005DD 21 50 04              1420 	ld	hl, #1104
      0005E0 39                    1421 	add	hl, sp
      0005E1 36 78                 1422 	ld	(hl), #0x78
      0005E3 AF                    1423 	xor	a, a
      0005E4 23                    1424 	inc	hl
      0005E5 22                    1425 	ld	(hl+), a
      0005E6 36 06                 1426 	ld	(hl), #0x06
                                   1427 ;src\fire.c:74: for (x=3 ; x<17 ; ++x)
      0005E8                       1428 00140$:
                                   1429 ;c
      0005E8 21 51 04              1430 	ld	hl, #1105
      0005EB 39                    1431 	add	hl, sp
      0005EC 2B                    1432 	dec	hl
      0005ED 2A                    1433 	ld	a, (hl+)
      0005EE 5F                    1434 	ld	e, a
      0005EF 56                    1435 	ld	d, (hl)
      0005F0 21 3C 04              1436 	ld	hl, #1084
      0005F3 39                    1437 	add	hl, sp
      0005F4 2A                    1438 	ld	a, (hl+)
      0005F5 66                    1439 	ld	h, (hl)
      0005F6 6F                    1440 	ld	l, a
      0005F7 19                    1441 	add	hl, de
      0005F8 E5                    1442 	push	hl
      0005F9 7D                    1443 	ld	a, l
      0005FA 21 42 04              1444 	ld	hl, #1090
      0005FD 39                    1445 	add	hl, sp
      0005FE 77                    1446 	ld	(hl), a
      0005FF E1                    1447 	pop	hl
      000600 7C                    1448 	ld	a, h
      000601 21 41 04              1449 	ld	hl, #1089
      000604 39                    1450 	add	hl, sp
      000605 77                    1451 	ld	(hl), a
      000606 21 50 04              1452 	ld	hl, #1104
      000609 39                    1453 	add	hl, sp
      00060A 2A                    1454 	ld	a, (hl+)
      00060B 56                    1455 	ld	d, (hl)
      00060C 87                    1456 	add	a, a
      00060D CB 12                 1457 	rl	d
                                   1458 ;c
      00060F 5F                    1459 	ld	e, a
      000610 21 3A 04              1460 	ld	hl, #1082
      000613 39                    1461 	add	hl, sp
      000614 2A                    1462 	ld	a, (hl+)
      000615 66                    1463 	ld	h, (hl)
      000616 6F                    1464 	ld	l, a
      000617 19                    1465 	add	hl, de
      000618 E5                    1466 	push	hl
      000619 7D                    1467 	ld	a, l
      00061A 21 44 04              1468 	ld	hl, #1092
      00061D 39                    1469 	add	hl, sp
      00061E 77                    1470 	ld	(hl), a
      00061F E1                    1471 	pop	hl
      000620 7C                    1472 	ld	a, h
      000621 21 43 04              1473 	ld	hl, #1091
      000624 39                    1474 	add	hl, sp
      000625 77                    1475 	ld	(hl), a
      000626 21 40 04              1476 	ld	hl, #1088
      000629 39                    1477 	add	hl, sp
      00062A 2A                    1478 	ld	a, (hl+)
      00062B 5E                    1479 	ld	e, (hl)
      00062C 21 44 04              1480 	ld	hl, #1092
      00062F 39                    1481 	add	hl, sp
      000630 22                    1482 	ld	(hl+), a
      000631 73                    1483 	ld	(hl), e
                                   1484 ;c
      000632 21 41 04              1485 	ld	hl, #1089
      000635 39                    1486 	add	hl, sp
      000636 2B                    1487 	dec	hl
      000637 2A                    1488 	ld	a, (hl+)
      000638 5F                    1489 	ld	e, a
      000639 56                    1490 	ld	d, (hl)
      00063A 21 14 00              1491 	ld	hl, #0x0014
      00063D 19                    1492 	add	hl, de
      00063E E5                    1493 	push	hl
      00063F 7D                    1494 	ld	a, l
      000640 21 48 04              1495 	ld	hl, #1096
      000643 39                    1496 	add	hl, sp
      000644 77                    1497 	ld	(hl), a
      000645 E1                    1498 	pop	hl
      000646 7C                    1499 	ld	a, h
      000647 21 47 04              1500 	ld	hl, #1095
      00064A 39                    1501 	add	hl, sp
      00064B 77                    1502 	ld	(hl), a
      00064C 21 53 04              1503 	ld	hl, #1107
      00064F 39                    1504 	add	hl, sp
      000650 36 03                 1505 	ld	(hl), #0x03
      000652                       1506 00124$:
                                   1507 ;src\fire.c:76: UINT8 left = *(fire_buffer+oy+20+(UINT16)(x-1));
      000652 21 53 04              1508 	ld	hl, #1107
      000655 39                    1509 	add	hl, sp
      000656 7E                    1510 	ld	a, (hl)
      000657 21 48 04              1511 	ld	hl, #1096
      00065A 39                    1512 	add	hl, sp
      00065B 77                    1513 	ld	(hl), a
      00065C AF                    1514 	xor	a, a
      00065D 23                    1515 	inc	hl
      00065E 32                    1516 	ld	(hl-), a
      00065F 2A                    1517 	ld	a, (hl+)
      000660 5F                    1518 	ld	e, a
      000661 56                    1519 	ld	d, (hl)
      000662 21 01 00              1520 	ld	hl, #0x0001
      000665 7B                    1521 	ld	a, e
      000666 95                    1522 	sub	a, l
      000667 5F                    1523 	ld	e, a
      000668 7A                    1524 	ld	a, d
      000669 9C                    1525 	sbc	a, h
      00066A 21 4D 04              1526 	ld	hl, #1101
      00066D 39                    1527 	add	hl, sp
      00066E 32                    1528 	ld	(hl-), a
      00066F 7B                    1529 	ld	a, e
      000670 22                    1530 	ld	(hl+), a
      000671 2B                    1531 	dec	hl
      000672 2A                    1532 	ld	a, (hl+)
      000673 5F                    1533 	ld	e, a
      000674 56                    1534 	ld	d, (hl)
                                   1535 ;c
      000675 21 46 04              1536 	ld	hl, #1094
      000678 39                    1537 	add	hl, sp
      000679 2A                    1538 	ld	a, (hl+)
      00067A 66                    1539 	ld	h, (hl)
      00067B 6F                    1540 	ld	l, a
      00067C 19                    1541 	add	hl, de
      00067D 5D                    1542 	ld	e, l
      00067E 54                    1543 	ld	d, h
      00067F 1A                    1544 	ld	a, (de)
      000680 21 4D 04              1545 	ld	hl, #1101
      000683 39                    1546 	add	hl, sp
      000684 77                    1547 	ld	(hl), a
                                   1548 ;src\fire.c:77: UINT8 middle = *(fire_buffer+oy+20+x);
                                   1549 ;c
      000685 21 47 04              1550 	ld	hl, #1095
      000688 39                    1551 	add	hl, sp
      000689 2B                    1552 	dec	hl
      00068A 2A                    1553 	ld	a, (hl+)
      00068B 5F                    1554 	ld	e, a
      00068C 56                    1555 	ld	d, (hl)
      00068D 21 53 04              1556 	ld	hl, #1107
      000690 39                    1557 	add	hl, sp
      000691 6E                    1558 	ld	l, (hl)
      000692 26 00                 1559 	ld	h, #0x00
      000694 19                    1560 	add	hl, de
      000695 5D                    1561 	ld	e, l
      000696 54                    1562 	ld	d, h
      000697 1A                    1563 	ld	a, (de)
      000698 21 4A 04              1564 	ld	hl, #1098
      00069B 39                    1565 	add	hl, sp
      00069C 77                    1566 	ld	(hl), a
                                   1567 ;src\fire.c:78: UINT8 right = *(fire_buffer+oy+20+x+1);
      00069D 21 53 04              1568 	ld	hl, #1107
      0006A0 39                    1569 	add	hl, sp
      0006A1 7E                    1570 	ld	a, (hl)
      0006A2 C6 15                 1571 	add	a, #0x15
      0006A4 5F                    1572 	ld	e, a
      0006A5 17                    1573 	rla
      0006A6 9F                    1574 	sbc	a, a
      0006A7 57                    1575 	ld	d, a
                                   1576 ;c
      0006A8 21 44 04              1577 	ld	hl, #1092
      0006AB 39                    1578 	add	hl, sp
      0006AC 2A                    1579 	ld	a, (hl+)
      0006AD 66                    1580 	ld	h, (hl)
      0006AE 6F                    1581 	ld	l, a
      0006AF 19                    1582 	add	hl, de
      0006B0 5D                    1583 	ld	e, l
      0006B1 54                    1584 	ld	d, h
      0006B2 1A                    1585 	ld	a, (de)
      0006B3 21 4B 04              1586 	ld	hl, #1099
      0006B6 39                    1587 	add	hl, sp
                                   1588 ;src\fire.c:79: UINT8 value = (left+middle+right)/3;
      0006B7 22                    1589 	ld	(hl+), a
      0006B8 23                    1590 	inc	hl
      0006B9 3A                    1591 	ld	a, (hl-)
      0006BA 77                    1592 	ld	(hl), a
      0006BB AF                    1593 	xor	a, a
      0006BC 23                    1594 	inc	hl
      0006BD 77                    1595 	ld	(hl), a
      0006BE 21 4A 04              1596 	ld	hl, #1098
      0006C1 39                    1597 	add	hl, sp
      0006C2 5E                    1598 	ld	e, (hl)
      0006C3 16 00                 1599 	ld	d, #0x00
                                   1600 ;c
      0006C5 23                    1601 	inc	hl
      0006C6 23                    1602 	inc	hl
      0006C7 2A                    1603 	ld	a, (hl+)
      0006C8 66                    1604 	ld	h, (hl)
      0006C9 6F                    1605 	ld	l, a
      0006CA 19                    1606 	add	hl, de
      0006CB 33                    1607 	inc	sp
      0006CC 33                    1608 	inc	sp
      0006CD E5                    1609 	push	hl
      0006CE 21 4B 04              1610 	ld	hl, #1099
      0006D1 39                    1611 	add	hl, sp
      0006D2 5E                    1612 	ld	e, (hl)
      0006D3 16 00                 1613 	ld	d, #0x00
                                   1614 ;c
      0006D5 E1                    1615 	pop	hl
      0006D6 E5                    1616 	push	hl
      0006D7 19                    1617 	add	hl, de
      0006D8 5D                    1618 	ld	e, l
      0006D9 54                    1619 	ld	d, h
      0006DA C5                    1620 	push	bc
      0006DB 21 03 00              1621 	ld	hl, #0x0003
      0006DE E5                    1622 	push	hl
      0006DF D5                    1623 	push	de
      0006E0 CDr00r00              1624 	call	__divsint
      0006E3 E8 04                 1625 	add	sp, #4
      0006E5 C1                    1626 	pop	bc
      0006E6 21 4D 04              1627 	ld	hl, #1101
      0006E9 39                    1628 	add	hl, sp
      0006EA 73                    1629 	ld	(hl), e
                                   1630 ;src\fire.c:81: if (value>=6)
      0006EB 7E                    1631 	ld	a, (hl)
      0006EC D6 06                 1632 	sub	a, #0x06
      0006EE 38 04                 1633 	jr	C, 00110$
                                   1634 ;src\fire.c:82: value -= 6;
      0006F0 7E                    1635 	ld	a, (hl)
      0006F1 C6 FA                 1636 	add	a, #0xfa
      0006F3 77                    1637 	ld	(hl), a
      0006F4                       1638 00110$:
                                   1639 ;src\fire.c:84: *(fire_buffer+oy+x) = value;
                                   1640 ;c
      0006F4 21 41 04              1641 	ld	hl, #1089
      0006F7 39                    1642 	add	hl, sp
      0006F8 2B                    1643 	dec	hl
      0006F9 2A                    1644 	ld	a, (hl+)
      0006FA 5F                    1645 	ld	e, a
      0006FB 56                    1646 	ld	d, (hl)
      0006FC 21 53 04              1647 	ld	hl, #1107
      0006FF 39                    1648 	add	hl, sp
      000700 6E                    1649 	ld	l, (hl)
      000701 26 00                 1650 	ld	h, #0x00
      000703 19                    1651 	add	hl, de
      000704 5D                    1652 	ld	e, l
      000705 54                    1653 	ld	d, h
      000706 21 4D 04              1654 	ld	hl, #1101
      000709 39                    1655 	add	hl, sp
      00070A 7E                    1656 	ld	a, (hl)
      00070B 12                    1657 	ld	(de), a
                                   1658 ;src\fire.c:85: **(fire_output+oy+x) = value>>2;
      00070C 21 48 04              1659 	ld	hl, #1096
      00070F 39                    1660 	add	hl, sp
      000710 2A                    1661 	ld	a, (hl+)
      000711 56                    1662 	ld	d, (hl)
      000712 87                    1663 	add	a, a
      000713 CB 12                 1664 	rl	d
                                   1665 ;c
      000715 5F                    1666 	ld	e, a
      000716 21 42 04              1667 	ld	hl, #1090
      000719 39                    1668 	add	hl, sp
      00071A 2A                    1669 	ld	a, (hl+)
      00071B 66                    1670 	ld	h, (hl)
      00071C 6F                    1671 	ld	l, a
      00071D 19                    1672 	add	hl, de
      00071E E5                    1673 	push	hl
      00071F 7D                    1674 	ld	a, l
      000720 21 4D 04              1675 	ld	hl, #1101
      000723 39                    1676 	add	hl, sp
      000724 77                    1677 	ld	(hl), a
      000725 E1                    1678 	pop	hl
      000726 7C                    1679 	ld	a, h
      000727 21 4C 04              1680 	ld	hl, #1100
      00072A 39                    1681 	add	hl, sp
      00072B 32                    1682 	ld	(hl-), a
      00072C 2A                    1683 	ld	a, (hl+)
      00072D 5F                    1684 	ld	e, a
      00072E 56                    1685 	ld	d, (hl)
      00072F 1A                    1686 	ld	a, (de)
      000730 2B                    1687 	dec	hl
      000731 22                    1688 	ld	(hl+), a
      000732 13                    1689 	inc	de
      000733 1A                    1690 	ld	a, (de)
      000734 22                    1691 	ld	(hl+), a
      000735 7E                    1692 	ld	a, (hl)
      000736 0F                    1693 	rrca
      000737 0F                    1694 	rrca
      000738 E6 3F                 1695 	and	a, #0x3f
      00073A 2B                    1696 	dec	hl
      00073B 2B                    1697 	dec	hl
      00073C F5                    1698 	push	af
      00073D 2A                    1699 	ld	a, (hl+)
      00073E 66                    1700 	ld	h, (hl)
      00073F 6F                    1701 	ld	l, a
      000740 F1                    1702 	pop	af
      000741 77                    1703 	ld	(hl), a
                                   1704 ;src\fire.c:86: fire_lcd();
      000742 C5                    1705 	push	bc
      000743 CDr00r00              1706 	call	_fire_lcd
      000746 C1                    1707 	pop	bc
                                   1708 ;src\fire.c:74: for (x=3 ; x<17 ; ++x)
      000747 21 53 04              1709 	ld	hl, #1107
      00074A 39                    1710 	add	hl, sp
      00074B 34                    1711 	inc	(hl)
      00074C 7E                    1712 	ld	a, (hl)
      00074D D6 11                 1713 	sub	a, #0x11
      00074F DAr52r06              1714 	jp	C, 00124$
                                   1715 ;src\fire.c:88: oy += 20;
                                   1716 ;c
      000752 2B                    1717 	dec	hl
      000753 2B                    1718 	dec	hl
      000754 2B                    1719 	dec	hl
      000755 2A                    1720 	ld	a, (hl+)
      000756 5F                    1721 	ld	e, a
      000757 56                    1722 	ld	d, (hl)
      000758 21 14 00              1723 	ld	hl, #0x0014
      00075B 19                    1724 	add	hl, de
      00075C E5                    1725 	push	hl
      00075D 7D                    1726 	ld	a, l
      00075E 21 52 04              1727 	ld	hl, #1106
      000761 39                    1728 	add	hl, sp
      000762 77                    1729 	ld	(hl), a
      000763 E1                    1730 	pop	hl
      000764 7C                    1731 	ld	a, h
      000765 21 51 04              1732 	ld	hl, #1105
      000768 39                    1733 	add	hl, sp
                                   1734 ;src\fire.c:72: for (y=6 ; y<17 ; ++y)
      000769 22                    1735 	ld	(hl+), a
      00076A 34                    1736 	inc	(hl)
      00076B 7E                    1737 	ld	a, (hl)
      00076C D6 11                 1738 	sub	a, #0x11
      00076E DArE8r05              1739 	jp	C, 00140$
                                   1740 ;src\fire.c:91: ++sync;
      000771 21 4E 04              1741 	ld	hl, #1102
      000774 39                    1742 	add	hl, sp
      000775 34                    1743 	inc	(hl)
      000776 20 02                 1744 	jr	NZ, 00218$
      000778 23                    1745 	inc	hl
      000779 34                    1746 	inc	(hl)
      00077A                       1747 00218$:
                                   1748 ;src\fire.c:92: fire_wind = fire_scanline_offsets_tbl[(sync%32)*3/5]*60;
      00077A C5                    1749 	push	bc
      00077B 21 20 00              1750 	ld	hl, #0x0020
      00077E E5                    1751 	push	hl
      00077F 21 52 04              1752 	ld	hl, #1106
      000782 39                    1753 	add	hl, sp
      000783 2A                    1754 	ld	a, (hl+)
      000784 66                    1755 	ld	h, (hl)
      000785 6F                    1756 	ld	l, a
      000786 E5                    1757 	push	hl
      000787 CDr00r00              1758 	call	__modsint
      00078A E8 04                 1759 	add	sp, #4
      00078C E5                    1760 	push	hl
      00078D 21 56 04              1761 	ld	hl, #1110
      000790 39                    1762 	add	hl, sp
      000791 73                    1763 	ld	(hl), e
      000792 21 57 04              1764 	ld	hl, #1111
      000795 39                    1765 	add	hl, sp
      000796 72                    1766 	ld	(hl), d
      000797 E1                    1767 	pop	hl
      000798 C1                    1768 	pop	bc
      000799 21 53 04              1769 	ld	hl, #1107
      00079C 39                    1770 	add	hl, sp
      00079D 2B                    1771 	dec	hl
      00079E 2A                    1772 	ld	a, (hl+)
      00079F 5F                    1773 	ld	e, a
      0007A0 56                    1774 	ld	d, (hl)
      0007A1 6B                    1775 	ld	l, e
      0007A2 62                    1776 	ld	h, d
      0007A3 29                    1777 	add	hl, hl
      0007A4 19                    1778 	add	hl, de
      0007A5 C5                    1779 	push	bc
      0007A6 11 05 00              1780 	ld	de, #0x0005
      0007A9 D5                    1781 	push	de
      0007AA E5                    1782 	push	hl
      0007AB CDr00r00              1783 	call	__divsint
      0007AE E8 04                 1784 	add	sp, #4
      0007B0 C1                    1785 	pop	bc
      0007B1 21r89r03              1786 	ld	hl, #_fire_scanline_offsets_tbl
      0007B4 19                    1787 	add	hl, de
      0007B5 7E                    1788 	ld	a, (hl)
      0007B6 5F                    1789 	ld	e, a
      0007B7 87                    1790 	add	a, a
      0007B8 83                    1791 	add	a, e
      0007B9 87                    1792 	add	a, a
      0007BA 83                    1793 	add	a, e
      0007BB 87                    1794 	add	a, a
      0007BC 83                    1795 	add	a, e
      0007BD 87                    1796 	add	a, a
      0007BE 87                    1797 	add	a, a
      0007BF EAr02r00              1798 	ld	(#_fire_wind),a
                                   1799 ;src\fire.c:94: if (sync>100)
      0007C2 21 4E 04              1800 	ld	hl, #1102
      0007C5 39                    1801 	add	hl, sp
      0007C6 3E 64                 1802 	ld	a, #0x64
      0007C8 96                    1803 	sub	a, (hl)
      0007C9 23                    1804 	inc	hl
      0007CA 3E 00                 1805 	ld	a, #0x00
      0007CC 9E                    1806 	sbc	a, (hl)
      0007CD 3E 00                 1807 	ld	a, #0x00
      0007CF 57                    1808 	ld	d, a
      0007D0 5E                    1809 	ld	e, (hl)
      0007D1 CB 7B                 1810 	bit	7, e
      0007D3 28 07                 1811 	jr	Z, 00219$
      0007D5 CB 7A                 1812 	bit	7, d
      0007D7 20 08                 1813 	jr	NZ, 00220$
      0007D9 BF                    1814 	cp	a, a
      0007DA 18 05                 1815 	jr	00220$
      0007DC                       1816 00219$:
      0007DC CB 7A                 1817 	bit	7, d
      0007DE 28 01                 1818 	jr	Z, 00220$
      0007E0 37                    1819 	scf
      0007E1                       1820 00220$:
      0007E1 D2r2Fr05              1821 	jp	NC, 00116$
                                   1822 ;src\fire.c:95: break;
                                   1823 ;src\fire.c:97: }
      0007E4 21 54 04              1824 	ld	hl, #1108
      0007E7 39                    1825 	add	hl, sp
      0007E8 F9                    1826 	ld	sp, hl
      0007E9 C9                    1827 	ret
                                   1828 	.area _CODE_4
                                   1829 	.area _CABS (ABS)
