;--------------------------------------------------------
; File Created by SDCC : free open source ANSI-C Compiler
; Version 4.1.0 #12072 (MINGW32)
;--------------------------------------------------------
	.module colorbar
	.optsdcc -mgbz80
	
;--------------------------------------------------------
; Public variables in this module
;--------------------------------------------------------
	.globl _main
	.globl _set_bkg_tiles
	.globl _set_bkg_data
	.globl _enable_interrupts
	.globl _set_bkg_palette
	.globl _bar_a
	.globl _bar_p
	.globl _bar_m
	.globl _bar_c
	.globl _bar_cCGB
;--------------------------------------------------------
; special function registers
;--------------------------------------------------------
;--------------------------------------------------------
; ram data
;--------------------------------------------------------
	.area _DATA
;--------------------------------------------------------
; absolute external ram data
;--------------------------------------------------------
	.area _DABS (ABS)
;--------------------------------------------------------
; global & static initialisations
;--------------------------------------------------------
	.area _HOME
	.area _GSINIT
	.area _GSFINAL
	.area _GSINIT
;--------------------------------------------------------
; Home
;--------------------------------------------------------
	.area _HOME
	.area _HOME
;--------------------------------------------------------
; code
;--------------------------------------------------------
	.area _CODE
;colorbar.c:41: int main(void)
;	---------------------------------
; Function main
; ---------------------------------
_main::
;colorbar.c:44: set_bkg_palette( 7, 1, &bar_p[0] );
	ld	hl, #_bar_p
	push	hl
	ld	de, #0x0107
	push	de
	call	_set_bkg_palette
	add	sp, #4
;colorbar.c:45: set_bkg_palette( 6, 1, &bar_p[4] );
	ld	hl, #(_bar_p + 0x0008)
	push	hl
	ld	de, #0x0106
	push	de
	call	_set_bkg_palette
	add	sp, #4
;colorbar.c:46: set_bkg_palette( 5, 1, &bar_p[8] );
	ld	hl, #(_bar_p + 0x0010)
	push	hl
	ld	de, #0x0105
	push	de
	call	_set_bkg_palette
	add	sp, #4
;colorbar.c:47: set_bkg_palette( 4, 1, &bar_p[12] );
	ld	hl, #(_bar_p + 0x0018)
	push	hl
	ld	de, #0x0104
	push	de
	call	_set_bkg_palette
	add	sp, #4
;colorbar.c:48: set_bkg_palette( 3, 1, &bar_p[16] );
	ld	hl, #(_bar_p + 0x0020)
	push	hl
	ld	de, #0x0103
	push	de
	call	_set_bkg_palette
	add	sp, #4
;colorbar.c:49: set_bkg_palette( 2, 1, &bar_p[20] );
	ld	hl, #(_bar_p + 0x0028)
	push	hl
	ld	de, #0x0102
	push	de
	call	_set_bkg_palette
	add	sp, #4
;colorbar.c:50: set_bkg_palette( 1, 1, &bar_p[24] );
	ld	hl, #(_bar_p + 0x0030)
	push	hl
	ld	de, #0x0101
	push	de
	call	_set_bkg_palette
	add	sp, #4
;colorbar.c:51: set_bkg_palette( 0, 1, &bar_p[28] );
	ld	hl, #(_bar_p + 0x0038)
	push	hl
	ld	a, #0x01
	push	af
	inc	sp
	xor	a, a
	push	af
	inc	sp
	call	_set_bkg_palette
	add	sp, #4
;colorbar.c:54: set_bkg_data( 0x0, 32, bar_c );
	ld	hl, #_bar_c
	push	hl
	ld	a, #0x20
	push	af
	inc	sp
	xor	a, a
	push	af
	inc	sp
	call	_set_bkg_data
	add	sp, #4
;colorbar.c:57: VBK_REG = 1;
	ld	a, #0x01
	ldh	(_VBK_REG+0),a
;colorbar.c:59: set_bkg_tiles( 0, 0, bar_mWidth, bar_mHeight, bar_a );
	ld	hl, #_bar_a
	push	hl
	ld	de, #0x1214
	push	de
	xor	a, a
	push	af
	inc	sp
	xor	a, a
	push	af
	inc	sp
	call	_set_bkg_tiles
	add	sp, #6
;colorbar.c:62: VBK_REG = 0;
	ld	a, #0x00
	ldh	(_VBK_REG+0),a
;colorbar.c:64: set_bkg_tiles( 0, 0, bar_mWidth, bar_mHeight, bar_m );
	ld	hl, #_bar_m
	push	hl
	ld	de, #0x1214
	push	de
	xor	a, a
	push	af
	inc	sp
	xor	a, a
	push	af
	inc	sp
	call	_set_bkg_tiles
	add	sp, #6
;colorbar.c:66: SHOW_BKG;
	ldh	a, (_LCDC_REG+0)
	or	a, #0x01
	ldh	(_LCDC_REG+0),a
;colorbar.c:67: enable_interrupts();
	call	_enable_interrupts
;colorbar.c:68: DISPLAY_ON;
	ldh	a, (_LCDC_REG+0)
	or	a, #0x80
	ldh	(_LCDC_REG+0),a
;colorbar.c:70: return 0;
	ld	de, #0x0000
;colorbar.c:71: }
	ret
_bar_cCGB:
	.db #0x00	; 0
	.db #0x00	; 0
	.db #0x00	; 0
	.db #0x00	; 0
	.db #0x01	; 1
	.db #0x01	; 1
	.db #0x01	; 1
	.db #0x01	; 1
	.db #0x02	; 2
	.db #0x02	; 2
	.db #0x02	; 2
	.db #0x02	; 2
	.db #0x03	; 3
	.db #0x03	; 3
	.db #0x03	; 3
	.db #0x03	; 3
	.db #0x04	; 4
	.db #0x04	; 4
	.db #0x04	; 4
	.db #0x04	; 4
	.db #0x05	; 5
	.db #0x05	; 5
	.db #0x05	; 5
	.db #0x05	; 5
	.db #0x06	; 6
	.db #0x06	; 6
	.db #0x06	; 6
	.db #0x06	; 6
	.db #0x07	; 7
	.db #0x07	; 7
	.db #0x07	; 7
	.db #0x07	; 7
_bar_c:
	.db #0x00	; 0
	.db #0x00	; 0
	.db #0x00	; 0
	.db #0x00	; 0
	.db #0x00	; 0
	.db #0x00	; 0
	.db #0x00	; 0
	.db #0x00	; 0
	.db #0x00	; 0
	.db #0x00	; 0
	.db #0x00	; 0
	.db #0x00	; 0
	.db #0x00	; 0
	.db #0x00	; 0
	.db #0x00	; 0
	.db #0x00	; 0
	.db #0xff	; 255
	.db #0x00	; 0
	.db #0xff	; 255
	.db #0x00	; 0
	.db #0xff	; 255
	.db #0x00	; 0
	.db #0xff	; 255
	.db #0x00	; 0
	.db #0xff	; 255
	.db #0x00	; 0
	.db #0xff	; 255
	.db #0x00	; 0
	.db #0xff	; 255
	.db #0x00	; 0
	.db #0xff	; 255
	.db #0x00	; 0
	.db #0x00	; 0
	.db #0xff	; 255
	.db #0x00	; 0
	.db #0xff	; 255
	.db #0x00	; 0
	.db #0xff	; 255
	.db #0x00	; 0
	.db #0xff	; 255
	.db #0x00	; 0
	.db #0xff	; 255
	.db #0x00	; 0
	.db #0xff	; 255
	.db #0x00	; 0
	.db #0xff	; 255
	.db #0x00	; 0
	.db #0xff	; 255
	.db #0xff	; 255
	.db #0xff	; 255
	.db #0xff	; 255
	.db #0xff	; 255
	.db #0xff	; 255
	.db #0xff	; 255
	.db #0xff	; 255
	.db #0xff	; 255
	.db #0xff	; 255
	.db #0xff	; 255
	.db #0xff	; 255
	.db #0xff	; 255
	.db #0xff	; 255
	.db #0xff	; 255
	.db #0xff	; 255
	.db #0xff	; 255
	.db #0x00	; 0
	.db #0x00	; 0
	.db #0x00	; 0
	.db #0x00	; 0
	.db #0x00	; 0
	.db #0x00	; 0
	.db #0x00	; 0
	.db #0x00	; 0
	.db #0x00	; 0
	.db #0x00	; 0
	.db #0x00	; 0
	.db #0x00	; 0
	.db #0x00	; 0
	.db #0x00	; 0
	.db #0x00	; 0
	.db #0x00	; 0
	.db #0xff	; 255
	.db #0x00	; 0
	.db #0xff	; 255
	.db #0x00	; 0
	.db #0xff	; 255
	.db #0x00	; 0
	.db #0xff	; 255
	.db #0x00	; 0
	.db #0xff	; 255
	.db #0x00	; 0
	.db #0xff	; 255
	.db #0x00	; 0
	.db #0xff	; 255
	.db #0x00	; 0
	.db #0xff	; 255
	.db #0x00	; 0
	.db #0x00	; 0
	.db #0xff	; 255
	.db #0x00	; 0
	.db #0xff	; 255
	.db #0x00	; 0
	.db #0xff	; 255
	.db #0x00	; 0
	.db #0xff	; 255
	.db #0x00	; 0
	.db #0xff	; 255
	.db #0x00	; 0
	.db #0xff	; 255
	.db #0x00	; 0
	.db #0xff	; 255
	.db #0x00	; 0
	.db #0xff	; 255
	.db #0xff	; 255
	.db #0xff	; 255
	.db #0xff	; 255
	.db #0xff	; 255
	.db #0xff	; 255
	.db #0xff	; 255
	.db #0xff	; 255
	.db #0xff	; 255
	.db #0xff	; 255
	.db #0xff	; 255
	.db #0xff	; 255
	.db #0xff	; 255
	.db #0xff	; 255
	.db #0xff	; 255
	.db #0xff	; 255
	.db #0xff	; 255
	.db #0x00	; 0
	.db #0x00	; 0
	.db #0x00	; 0
	.db #0x00	; 0
	.db #0x00	; 0
	.db #0x00	; 0
	.db #0x00	; 0
	.db #0x00	; 0
	.db #0x00	; 0
	.db #0x00	; 0
	.db #0x00	; 0
	.db #0x00	; 0
	.db #0x00	; 0
	.db #0x00	; 0
	.db #0x00	; 0
	.db #0x00	; 0
	.db #0xff	; 255
	.db #0x00	; 0
	.db #0xff	; 255
	.db #0x00	; 0
	.db #0xff	; 255
	.db #0x00	; 0
	.db #0xff	; 255
	.db #0x00	; 0
	.db #0xff	; 255
	.db #0x00	; 0
	.db #0xff	; 255
	.db #0x00	; 0
	.db #0xff	; 255
	.db #0x00	; 0
	.db #0xff	; 255
	.db #0x00	; 0
	.db #0x00	; 0
	.db #0xff	; 255
	.db #0x00	; 0
	.db #0xff	; 255
	.db #0x00	; 0
	.db #0xff	; 255
	.db #0x00	; 0
	.db #0xff	; 255
	.db #0x00	; 0
	.db #0xff	; 255
	.db #0x00	; 0
	.db #0xff	; 255
	.db #0x00	; 0
	.db #0xff	; 255
	.db #0x00	; 0
	.db #0xff	; 255
	.db #0xff	; 255
	.db #0xff	; 255
	.db #0xff	; 255
	.db #0xff	; 255
	.db #0xff	; 255
	.db #0xff	; 255
	.db #0xff	; 255
	.db #0xff	; 255
	.db #0xff	; 255
	.db #0xff	; 255
	.db #0xff	; 255
	.db #0xff	; 255
	.db #0xff	; 255
	.db #0xff	; 255
	.db #0xff	; 255
	.db #0xff	; 255
	.db #0x00	; 0
	.db #0x00	; 0
	.db #0x00	; 0
	.db #0x00	; 0
	.db #0x00	; 0
	.db #0x00	; 0
	.db #0x00	; 0
	.db #0x00	; 0
	.db #0x00	; 0
	.db #0x00	; 0
	.db #0x00	; 0
	.db #0x00	; 0
	.db #0x00	; 0
	.db #0x00	; 0
	.db #0x00	; 0
	.db #0x00	; 0
	.db #0xff	; 255
	.db #0x00	; 0
	.db #0xff	; 255
	.db #0x00	; 0
	.db #0xff	; 255
	.db #0x00	; 0
	.db #0xff	; 255
	.db #0x00	; 0
	.db #0xff	; 255
	.db #0x00	; 0
	.db #0xff	; 255
	.db #0x00	; 0
	.db #0xff	; 255
	.db #0x00	; 0
	.db #0xff	; 255
	.db #0x00	; 0
	.db #0x00	; 0
	.db #0xff	; 255
	.db #0x00	; 0
	.db #0xff	; 255
	.db #0x00	; 0
	.db #0xff	; 255
	.db #0x00	; 0
	.db #0xff	; 255
	.db #0x00	; 0
	.db #0xff	; 255
	.db #0x00	; 0
	.db #0xff	; 255
	.db #0x00	; 0
	.db #0xff	; 255
	.db #0x00	; 0
	.db #0xff	; 255
	.db #0xff	; 255
	.db #0xff	; 255
	.db #0xff	; 255
	.db #0xff	; 255
	.db #0xff	; 255
	.db #0xff	; 255
	.db #0xff	; 255
	.db #0xff	; 255
	.db #0xff	; 255
	.db #0xff	; 255
	.db #0xff	; 255
	.db #0xff	; 255
	.db #0xff	; 255
	.db #0xff	; 255
	.db #0xff	; 255
	.db #0xff	; 255
	.db #0x00	; 0
	.db #0x00	; 0
	.db #0x00	; 0
	.db #0x00	; 0
	.db #0x00	; 0
	.db #0x00	; 0
	.db #0x00	; 0
	.db #0x00	; 0
	.db #0x00	; 0
	.db #0x00	; 0
	.db #0x00	; 0
	.db #0x00	; 0
	.db #0x00	; 0
	.db #0x00	; 0
	.db #0x00	; 0
	.db #0x00	; 0
	.db #0xff	; 255
	.db #0x00	; 0
	.db #0xff	; 255
	.db #0x00	; 0
	.db #0xff	; 255
	.db #0x00	; 0
	.db #0xff	; 255
	.db #0x00	; 0
	.db #0xff	; 255
	.db #0x00	; 0
	.db #0xff	; 255
	.db #0x00	; 0
	.db #0xff	; 255
	.db #0x00	; 0
	.db #0xff	; 255
	.db #0x00	; 0
	.db #0x00	; 0
	.db #0xff	; 255
	.db #0x00	; 0
	.db #0xff	; 255
	.db #0x00	; 0
	.db #0xff	; 255
	.db #0x00	; 0
	.db #0xff	; 255
	.db #0x00	; 0
	.db #0xff	; 255
	.db #0x00	; 0
	.db #0xff	; 255
	.db #0x00	; 0
	.db #0xff	; 255
	.db #0x00	; 0
	.db #0xff	; 255
	.db #0xff	; 255
	.db #0xff	; 255
	.db #0xff	; 255
	.db #0xff	; 255
	.db #0xff	; 255
	.db #0xff	; 255
	.db #0xff	; 255
	.db #0xff	; 255
	.db #0xff	; 255
	.db #0xff	; 255
	.db #0xff	; 255
	.db #0xff	; 255
	.db #0xff	; 255
	.db #0xff	; 255
	.db #0xff	; 255
	.db #0xff	; 255
	.db #0x00	; 0
	.db #0x00	; 0
	.db #0x00	; 0
	.db #0x00	; 0
	.db #0x00	; 0
	.db #0x00	; 0
	.db #0x00	; 0
	.db #0x00	; 0
	.db #0x00	; 0
	.db #0x00	; 0
	.db #0x00	; 0
	.db #0x00	; 0
	.db #0x00	; 0
	.db #0x00	; 0
	.db #0x00	; 0
	.db #0x00	; 0
	.db #0xff	; 255
	.db #0x00	; 0
	.db #0xff	; 255
	.db #0x00	; 0
	.db #0xff	; 255
	.db #0x00	; 0
	.db #0xff	; 255
	.db #0x00	; 0
	.db #0xff	; 255
	.db #0x00	; 0
	.db #0xff	; 255
	.db #0x00	; 0
	.db #0xff	; 255
	.db #0x00	; 0
	.db #0xff	; 255
	.db #0x00	; 0
	.db #0x00	; 0
	.db #0xff	; 255
	.db #0x00	; 0
	.db #0xff	; 255
	.db #0x00	; 0
	.db #0xff	; 255
	.db #0x00	; 0
	.db #0xff	; 255
	.db #0x00	; 0
	.db #0xff	; 255
	.db #0x00	; 0
	.db #0xff	; 255
	.db #0x00	; 0
	.db #0xff	; 255
	.db #0x00	; 0
	.db #0xff	; 255
	.db #0xff	; 255
	.db #0xff	; 255
	.db #0xff	; 255
	.db #0xff	; 255
	.db #0xff	; 255
	.db #0xff	; 255
	.db #0xff	; 255
	.db #0xff	; 255
	.db #0xff	; 255
	.db #0xff	; 255
	.db #0xff	; 255
	.db #0xff	; 255
	.db #0xff	; 255
	.db #0xff	; 255
	.db #0xff	; 255
	.db #0xff	; 255
	.db #0x00	; 0
	.db #0x00	; 0
	.db #0x00	; 0
	.db #0x00	; 0
	.db #0x00	; 0
	.db #0x00	; 0
	.db #0x00	; 0
	.db #0x00	; 0
	.db #0x00	; 0
	.db #0x00	; 0
	.db #0x00	; 0
	.db #0x00	; 0
	.db #0x00	; 0
	.db #0x00	; 0
	.db #0x00	; 0
	.db #0x00	; 0
	.db #0xff	; 255
	.db #0x00	; 0
	.db #0xff	; 255
	.db #0x00	; 0
	.db #0xff	; 255
	.db #0x00	; 0
	.db #0xff	; 255
	.db #0x00	; 0
	.db #0xff	; 255
	.db #0x00	; 0
	.db #0xff	; 255
	.db #0x00	; 0
	.db #0xff	; 255
	.db #0x00	; 0
	.db #0xff	; 255
	.db #0x00	; 0
	.db #0x00	; 0
	.db #0xff	; 255
	.db #0x00	; 0
	.db #0xff	; 255
	.db #0x00	; 0
	.db #0xff	; 255
	.db #0x00	; 0
	.db #0xff	; 255
	.db #0x00	; 0
	.db #0xff	; 255
	.db #0x00	; 0
	.db #0xff	; 255
	.db #0x00	; 0
	.db #0xff	; 255
	.db #0x00	; 0
	.db #0xff	; 255
	.db #0xff	; 255
	.db #0xff	; 255
	.db #0xff	; 255
	.db #0xff	; 255
	.db #0xff	; 255
	.db #0xff	; 255
	.db #0xff	; 255
	.db #0xff	; 255
	.db #0xff	; 255
	.db #0xff	; 255
	.db #0xff	; 255
	.db #0xff	; 255
	.db #0xff	; 255
	.db #0xff	; 255
	.db #0xff	; 255
	.db #0xff	; 255
	.db #0x00	; 0
	.db #0x00	; 0
	.db #0x00	; 0
	.db #0x00	; 0
	.db #0x00	; 0
	.db #0x00	; 0
	.db #0x00	; 0
	.db #0x00	; 0
	.db #0x00	; 0
	.db #0x00	; 0
	.db #0x00	; 0
	.db #0x00	; 0
	.db #0x00	; 0
	.db #0x00	; 0
	.db #0x00	; 0
	.db #0x00	; 0
	.db #0xff	; 255
	.db #0x00	; 0
	.db #0xff	; 255
	.db #0x00	; 0
	.db #0xff	; 255
	.db #0x00	; 0
	.db #0xff	; 255
	.db #0x00	; 0
	.db #0xff	; 255
	.db #0x00	; 0
	.db #0xff	; 255
	.db #0x00	; 0
	.db #0xff	; 255
	.db #0x00	; 0
	.db #0xff	; 255
	.db #0x00	; 0
	.db #0x00	; 0
	.db #0xff	; 255
	.db #0x00	; 0
	.db #0xff	; 255
	.db #0x00	; 0
	.db #0xff	; 255
	.db #0x00	; 0
	.db #0xff	; 255
	.db #0x00	; 0
	.db #0xff	; 255
	.db #0x00	; 0
	.db #0xff	; 255
	.db #0x00	; 0
	.db #0xff	; 255
	.db #0x00	; 0
	.db #0xff	; 255
	.db #0xff	; 255
	.db #0xff	; 255
	.db #0xff	; 255
	.db #0xff	; 255
	.db #0xff	; 255
	.db #0xff	; 255
	.db #0xff	; 255
	.db #0xff	; 255
	.db #0xff	; 255
	.db #0xff	; 255
	.db #0xff	; 255
	.db #0xff	; 255
	.db #0xff	; 255
	.db #0xff	; 255
	.db #0xff	; 255
	.db #0xff	; 255
_bar_m:
	.db #0x1f	; 31
	.db #0x1f	; 31
	.db #0x12	; 18
	.db #0x12	; 18
	.db #0x12	; 18
	.db #0x1b	; 27
	.db #0x1b	; 27
	.db #0x1b	; 27
	.db #0x08	; 8
	.db #0x08	; 8
	.db #0x08	; 8
	.db #0x16	; 22
	.db #0x16	; 22
	.db #0x16	; 22
	.db #0x07	; 7
	.db #0x07	; 7
	.db #0x07	; 7
	.db #0x0c	; 12
	.db #0x0c	; 12
	.db #0x0c	; 12
	.db #0x1e	; 30
	.db #0x1e	; 30
	.db #0x13	; 19
	.db #0x13	; 19
	.db #0x13	; 19
	.db #0x18	; 24
	.db #0x18	; 24
	.db #0x18	; 24
	.db #0x09	; 9
	.db #0x09	; 9
	.db #0x09	; 9
	.db #0x17	; 23
	.db #0x17	; 23
	.db #0x17	; 23
	.db #0x04	; 4
	.db #0x04	; 4
	.db #0x04	; 4
	.db #0x0d	; 13
	.db #0x0d	; 13
	.db #0x0d	; 13
	.db #0x1d	; 29
	.db #0x1d	; 29
	.db #0x10	; 16
	.db #0x10	; 16
	.db #0x10	; 16
	.db #0x19	; 25
	.db #0x19	; 25
	.db #0x19	; 25
	.db #0x0a	; 10
	.db #0x0a	; 10
	.db #0x0a	; 10
	.db #0x14	; 20
	.db #0x14	; 20
	.db #0x14	; 20
	.db #0x05	; 5
	.db #0x05	; 5
	.db #0x05	; 5
	.db #0x0e	; 14
	.db #0x0e	; 14
	.db #0x0e	; 14
	.db #0x1c	; 28
	.db #0x1c	; 28
	.db #0x11	; 17
	.db #0x11	; 17
	.db #0x11	; 17
	.db #0x1a	; 26
	.db #0x1a	; 26
	.db #0x1a	; 26
	.db #0x0b	; 11
	.db #0x0b	; 11
	.db #0x0b	; 11
	.db #0x15	; 21
	.db #0x15	; 21
	.db #0x15	; 21
	.db #0x06	; 6
	.db #0x06	; 6
	.db #0x06	; 6
	.db #0x0f	; 15
	.db #0x0f	; 15
	.db #0x0f	; 15
	.db #0x1c	; 28
	.db #0x1c	; 28
	.db #0x11	; 17
	.db #0x11	; 17
	.db #0x11	; 17
	.db #0x1a	; 26
	.db #0x1a	; 26
	.db #0x1a	; 26
	.db #0x0b	; 11
	.db #0x0b	; 11
	.db #0x0b	; 11
	.db #0x15	; 21
	.db #0x15	; 21
	.db #0x15	; 21
	.db #0x06	; 6
	.db #0x06	; 6
	.db #0x06	; 6
	.db #0x0f	; 15
	.db #0x0f	; 15
	.db #0x0f	; 15
	.db #0x1c	; 28
	.db #0x1c	; 28
	.db #0x11	; 17
	.db #0x11	; 17
	.db #0x11	; 17
	.db #0x1a	; 26
	.db #0x1a	; 26
	.db #0x1a	; 26
	.db #0x0b	; 11
	.db #0x0b	; 11
	.db #0x0b	; 11
	.db #0x15	; 21
	.db #0x15	; 21
	.db #0x15	; 21
	.db #0x06	; 6
	.db #0x06	; 6
	.db #0x06	; 6
	.db #0x0f	; 15
	.db #0x0f	; 15
	.db #0x0f	; 15
	.db #0x1c	; 28
	.db #0x1c	; 28
	.db #0x11	; 17
	.db #0x11	; 17
	.db #0x11	; 17
	.db #0x1a	; 26
	.db #0x1a	; 26
	.db #0x1a	; 26
	.db #0x0b	; 11
	.db #0x0b	; 11
	.db #0x0b	; 11
	.db #0x15	; 21
	.db #0x15	; 21
	.db #0x15	; 21
	.db #0x06	; 6
	.db #0x06	; 6
	.db #0x06	; 6
	.db #0x0f	; 15
	.db #0x0f	; 15
	.db #0x0f	; 15
	.db #0x1c	; 28
	.db #0x1c	; 28
	.db #0x11	; 17
	.db #0x11	; 17
	.db #0x11	; 17
	.db #0x1a	; 26
	.db #0x1a	; 26
	.db #0x1a	; 26
	.db #0x0b	; 11
	.db #0x0b	; 11
	.db #0x0b	; 11
	.db #0x15	; 21
	.db #0x15	; 21
	.db #0x15	; 21
	.db #0x06	; 6
	.db #0x06	; 6
	.db #0x06	; 6
	.db #0x0f	; 15
	.db #0x0f	; 15
	.db #0x0f	; 15
	.db #0x1c	; 28
	.db #0x1c	; 28
	.db #0x11	; 17
	.db #0x11	; 17
	.db #0x11	; 17
	.db #0x1a	; 26
	.db #0x1a	; 26
	.db #0x1a	; 26
	.db #0x0b	; 11
	.db #0x0b	; 11
	.db #0x0b	; 11
	.db #0x15	; 21
	.db #0x15	; 21
	.db #0x15	; 21
	.db #0x06	; 6
	.db #0x06	; 6
	.db #0x06	; 6
	.db #0x0f	; 15
	.db #0x0f	; 15
	.db #0x0f	; 15
	.db #0x1c	; 28
	.db #0x1c	; 28
	.db #0x11	; 17
	.db #0x11	; 17
	.db #0x11	; 17
	.db #0x1a	; 26
	.db #0x1a	; 26
	.db #0x1a	; 26
	.db #0x0b	; 11
	.db #0x0b	; 11
	.db #0x0b	; 11
	.db #0x15	; 21
	.db #0x15	; 21
	.db #0x15	; 21
	.db #0x06	; 6
	.db #0x06	; 6
	.db #0x06	; 6
	.db #0x0f	; 15
	.db #0x0f	; 15
	.db #0x0f	; 15
	.db #0x1c	; 28
	.db #0x1c	; 28
	.db #0x11	; 17
	.db #0x11	; 17
	.db #0x11	; 17
	.db #0x1a	; 26
	.db #0x1a	; 26
	.db #0x1a	; 26
	.db #0x0b	; 11
	.db #0x0b	; 11
	.db #0x0b	; 11
	.db #0x15	; 21
	.db #0x15	; 21
	.db #0x15	; 21
	.db #0x06	; 6
	.db #0x06	; 6
	.db #0x06	; 6
	.db #0x0f	; 15
	.db #0x0f	; 15
	.db #0x0f	; 15
	.db #0x1c	; 28
	.db #0x1c	; 28
	.db #0x11	; 17
	.db #0x11	; 17
	.db #0x11	; 17
	.db #0x1a	; 26
	.db #0x1a	; 26
	.db #0x1a	; 26
	.db #0x0b	; 11
	.db #0x0b	; 11
	.db #0x0b	; 11
	.db #0x15	; 21
	.db #0x15	; 21
	.db #0x15	; 21
	.db #0x06	; 6
	.db #0x06	; 6
	.db #0x06	; 6
	.db #0x0f	; 15
	.db #0x0f	; 15
	.db #0x0f	; 15
	.db #0x1c	; 28
	.db #0x1c	; 28
	.db #0x11	; 17
	.db #0x11	; 17
	.db #0x11	; 17
	.db #0x1a	; 26
	.db #0x1a	; 26
	.db #0x1a	; 26
	.db #0x0b	; 11
	.db #0x0b	; 11
	.db #0x0b	; 11
	.db #0x15	; 21
	.db #0x15	; 21
	.db #0x15	; 21
	.db #0x06	; 6
	.db #0x06	; 6
	.db #0x06	; 6
	.db #0x0f	; 15
	.db #0x0f	; 15
	.db #0x0f	; 15
	.db #0x1c	; 28
	.db #0x1c	; 28
	.db #0x11	; 17
	.db #0x11	; 17
	.db #0x11	; 17
	.db #0x1a	; 26
	.db #0x1a	; 26
	.db #0x1a	; 26
	.db #0x0b	; 11
	.db #0x0b	; 11
	.db #0x0b	; 11
	.db #0x15	; 21
	.db #0x15	; 21
	.db #0x15	; 21
	.db #0x06	; 6
	.db #0x06	; 6
	.db #0x06	; 6
	.db #0x0f	; 15
	.db #0x0f	; 15
	.db #0x0f	; 15
	.db #0x0f	; 15
	.db #0x0f	; 15
	.db #0x03	; 3
	.db #0x03	; 3
	.db #0x03	; 3
	.db #0x15	; 21
	.db #0x15	; 21
	.db #0x15	; 21
	.db #0x03	; 3
	.db #0x03	; 3
	.db #0x03	; 3
	.db #0x1a	; 26
	.db #0x1a	; 26
	.db #0x1a	; 26
	.db #0x03	; 3
	.db #0x03	; 3
	.db #0x03	; 3
	.db #0x1c	; 28
	.db #0x1c	; 28
	.db #0x1c	; 28
	.db #0x0d	; 13
	.db #0x0d	; 13
	.db #0x0d	; 13
	.db #0x0d	; 13
	.db #0x00	; 0
	.db #0x00	; 0
	.db #0x00	; 0
	.db #0x00	; 0
	.db #0x16	; 22
	.db #0x16	; 22
	.db #0x16	; 22
	.db #0x16	; 22
	.db #0x03	; 3
	.db #0x03	; 3
	.db #0x03	; 3
	.db #0x03	; 3
	.db #0x03	; 3
	.db #0x03	; 3
	.db #0x03	; 3
	.db #0x03	; 3
	.db #0x0d	; 13
	.db #0x0d	; 13
	.db #0x0d	; 13
	.db #0x0d	; 13
	.db #0x00	; 0
	.db #0x00	; 0
	.db #0x00	; 0
	.db #0x00	; 0
	.db #0x16	; 22
	.db #0x16	; 22
	.db #0x16	; 22
	.db #0x16	; 22
	.db #0x03	; 3
	.db #0x03	; 3
	.db #0x03	; 3
	.db #0x03	; 3
	.db #0x03	; 3
	.db #0x03	; 3
	.db #0x03	; 3
	.db #0x03	; 3
	.db #0x0d	; 13
	.db #0x0d	; 13
	.db #0x0d	; 13
	.db #0x0d	; 13
	.db #0x00	; 0
	.db #0x00	; 0
	.db #0x00	; 0
	.db #0x00	; 0
	.db #0x16	; 22
	.db #0x16	; 22
	.db #0x16	; 22
	.db #0x16	; 22
	.db #0x03	; 3
	.db #0x03	; 3
	.db #0x03	; 3
	.db #0x03	; 3
	.db #0x03	; 3
	.db #0x03	; 3
	.db #0x03	; 3
	.db #0x03	; 3
_bar_p:
	.dw #0x7fff
	.dw #0x6318
	.dw #0x4a52
	.dw #0x0000
	.dw #0x0012
	.dw #0x0018
	.dw #0x001f
	.dw #0x000c
	.dw #0x0180
	.dw #0x0240
	.dw #0x0300
	.dw #0x03e0
	.dw #0x3000
	.dw #0x4800
	.dw #0x6000
	.dw #0x7c00
	.dw #0x0318
	.dw #0x03ff
	.dw #0x018c
	.dw #0x0252
	.dw #0x6018
	.dw #0x7c1f
	.dw #0x300c
	.dw #0x4812
	.dw #0x4a40
	.dw #0x6300
	.dw #0x7fe0
	.dw #0x3180
	.dw #0x7fff
	.dw #0x6318
	.dw #0x4a52
	.dw #0x318c
_bar_a:
	.db #0x07	; 7
	.db #0x07	; 7
	.db #0x04	; 4
	.db #0x04	; 4
	.db #0x04	; 4
	.db #0x06	; 6
	.db #0x06	; 6
	.db #0x06	; 6
	.db #0x02	; 2
	.db #0x02	; 2
	.db #0x02	; 2
	.db #0x05	; 5
	.db #0x05	; 5
	.db #0x05	; 5
	.db #0x01	; 1
	.db #0x01	; 1
	.db #0x01	; 1
	.db #0x03	; 3
	.db #0x03	; 3
	.db #0x03	; 3
	.db #0x07	; 7
	.db #0x07	; 7
	.db #0x04	; 4
	.db #0x04	; 4
	.db #0x04	; 4
	.db #0x06	; 6
	.db #0x06	; 6
	.db #0x06	; 6
	.db #0x02	; 2
	.db #0x02	; 2
	.db #0x02	; 2
	.db #0x05	; 5
	.db #0x05	; 5
	.db #0x05	; 5
	.db #0x01	; 1
	.db #0x01	; 1
	.db #0x01	; 1
	.db #0x03	; 3
	.db #0x03	; 3
	.db #0x03	; 3
	.db #0x07	; 7
	.db #0x07	; 7
	.db #0x04	; 4
	.db #0x04	; 4
	.db #0x04	; 4
	.db #0x06	; 6
	.db #0x06	; 6
	.db #0x06	; 6
	.db #0x02	; 2
	.db #0x02	; 2
	.db #0x02	; 2
	.db #0x05	; 5
	.db #0x05	; 5
	.db #0x05	; 5
	.db #0x01	; 1
	.db #0x01	; 1
	.db #0x01	; 1
	.db #0x03	; 3
	.db #0x03	; 3
	.db #0x03	; 3
	.db #0x07	; 7
	.db #0x07	; 7
	.db #0x04	; 4
	.db #0x04	; 4
	.db #0x04	; 4
	.db #0x06	; 6
	.db #0x06	; 6
	.db #0x06	; 6
	.db #0x02	; 2
	.db #0x02	; 2
	.db #0x02	; 2
	.db #0x05	; 5
	.db #0x05	; 5
	.db #0x05	; 5
	.db #0x01	; 1
	.db #0x01	; 1
	.db #0x01	; 1
	.db #0x03	; 3
	.db #0x03	; 3
	.db #0x03	; 3
	.db #0x07	; 7
	.db #0x07	; 7
	.db #0x04	; 4
	.db #0x04	; 4
	.db #0x04	; 4
	.db #0x06	; 6
	.db #0x06	; 6
	.db #0x06	; 6
	.db #0x02	; 2
	.db #0x02	; 2
	.db #0x02	; 2
	.db #0x05	; 5
	.db #0x05	; 5
	.db #0x05	; 5
	.db #0x01	; 1
	.db #0x01	; 1
	.db #0x01	; 1
	.db #0x03	; 3
	.db #0x03	; 3
	.db #0x03	; 3
	.db #0x07	; 7
	.db #0x07	; 7
	.db #0x04	; 4
	.db #0x04	; 4
	.db #0x04	; 4
	.db #0x06	; 6
	.db #0x06	; 6
	.db #0x06	; 6
	.db #0x02	; 2
	.db #0x02	; 2
	.db #0x02	; 2
	.db #0x05	; 5
	.db #0x05	; 5
	.db #0x05	; 5
	.db #0x01	; 1
	.db #0x01	; 1
	.db #0x01	; 1
	.db #0x03	; 3
	.db #0x03	; 3
	.db #0x03	; 3
	.db #0x07	; 7
	.db #0x07	; 7
	.db #0x04	; 4
	.db #0x04	; 4
	.db #0x04	; 4
	.db #0x06	; 6
	.db #0x06	; 6
	.db #0x06	; 6
	.db #0x02	; 2
	.db #0x02	; 2
	.db #0x02	; 2
	.db #0x05	; 5
	.db #0x05	; 5
	.db #0x05	; 5
	.db #0x01	; 1
	.db #0x01	; 1
	.db #0x01	; 1
	.db #0x03	; 3
	.db #0x03	; 3
	.db #0x03	; 3
	.db #0x07	; 7
	.db #0x07	; 7
	.db #0x04	; 4
	.db #0x04	; 4
	.db #0x04	; 4
	.db #0x06	; 6
	.db #0x06	; 6
	.db #0x06	; 6
	.db #0x02	; 2
	.db #0x02	; 2
	.db #0x02	; 2
	.db #0x05	; 5
	.db #0x05	; 5
	.db #0x05	; 5
	.db #0x01	; 1
	.db #0x01	; 1
	.db #0x01	; 1
	.db #0x03	; 3
	.db #0x03	; 3
	.db #0x03	; 3
	.db #0x07	; 7
	.db #0x07	; 7
	.db #0x04	; 4
	.db #0x04	; 4
	.db #0x04	; 4
	.db #0x06	; 6
	.db #0x06	; 6
	.db #0x06	; 6
	.db #0x02	; 2
	.db #0x02	; 2
	.db #0x02	; 2
	.db #0x05	; 5
	.db #0x05	; 5
	.db #0x05	; 5
	.db #0x01	; 1
	.db #0x01	; 1
	.db #0x01	; 1
	.db #0x03	; 3
	.db #0x03	; 3
	.db #0x03	; 3
	.db #0x07	; 7
	.db #0x07	; 7
	.db #0x04	; 4
	.db #0x04	; 4
	.db #0x04	; 4
	.db #0x06	; 6
	.db #0x06	; 6
	.db #0x06	; 6
	.db #0x02	; 2
	.db #0x02	; 2
	.db #0x02	; 2
	.db #0x05	; 5
	.db #0x05	; 5
	.db #0x05	; 5
	.db #0x01	; 1
	.db #0x01	; 1
	.db #0x01	; 1
	.db #0x03	; 3
	.db #0x03	; 3
	.db #0x03	; 3
	.db #0x07	; 7
	.db #0x07	; 7
	.db #0x04	; 4
	.db #0x04	; 4
	.db #0x04	; 4
	.db #0x06	; 6
	.db #0x06	; 6
	.db #0x06	; 6
	.db #0x02	; 2
	.db #0x02	; 2
	.db #0x02	; 2
	.db #0x05	; 5
	.db #0x05	; 5
	.db #0x05	; 5
	.db #0x01	; 1
	.db #0x01	; 1
	.db #0x01	; 1
	.db #0x03	; 3
	.db #0x03	; 3
	.db #0x03	; 3
	.db #0x07	; 7
	.db #0x07	; 7
	.db #0x04	; 4
	.db #0x04	; 4
	.db #0x04	; 4
	.db #0x06	; 6
	.db #0x06	; 6
	.db #0x06	; 6
	.db #0x02	; 2
	.db #0x02	; 2
	.db #0x02	; 2
	.db #0x05	; 5
	.db #0x05	; 5
	.db #0x05	; 5
	.db #0x01	; 1
	.db #0x01	; 1
	.db #0x01	; 1
	.db #0x03	; 3
	.db #0x03	; 3
	.db #0x03	; 3
	.db #0x07	; 7
	.db #0x07	; 7
	.db #0x04	; 4
	.db #0x04	; 4
	.db #0x04	; 4
	.db #0x06	; 6
	.db #0x06	; 6
	.db #0x06	; 6
	.db #0x02	; 2
	.db #0x02	; 2
	.db #0x02	; 2
	.db #0x05	; 5
	.db #0x05	; 5
	.db #0x05	; 5
	.db #0x01	; 1
	.db #0x01	; 1
	.db #0x01	; 1
	.db #0x03	; 3
	.db #0x03	; 3
	.db #0x03	; 3
	.db #0x07	; 7
	.db #0x07	; 7
	.db #0x04	; 4
	.db #0x04	; 4
	.db #0x04	; 4
	.db #0x06	; 6
	.db #0x06	; 6
	.db #0x06	; 6
	.db #0x02	; 2
	.db #0x02	; 2
	.db #0x02	; 2
	.db #0x05	; 5
	.db #0x05	; 5
	.db #0x05	; 5
	.db #0x01	; 1
	.db #0x01	; 1
	.db #0x01	; 1
	.db #0x03	; 3
	.db #0x03	; 3
	.db #0x03	; 3
	.db #0x03	; 3
	.db #0x03	; 3
	.db #0x00	; 0
	.db #0x00	; 0
	.db #0x00	; 0
	.db #0x05	; 5
	.db #0x05	; 5
	.db #0x05	; 5
	.db #0x00	; 0
	.db #0x00	; 0
	.db #0x00	; 0
	.db #0x06	; 6
	.db #0x06	; 6
	.db #0x06	; 6
	.db #0x00	; 0
	.db #0x00	; 0
	.db #0x00	; 0
	.db #0x07	; 7
	.db #0x07	; 7
	.db #0x07	; 7
	.db #0x03	; 3
	.db #0x03	; 3
	.db #0x03	; 3
	.db #0x03	; 3
	.db #0x00	; 0
	.db #0x00	; 0
	.db #0x00	; 0
	.db #0x00	; 0
	.db #0x05	; 5
	.db #0x05	; 5
	.db #0x05	; 5
	.db #0x05	; 5
	.db #0x00	; 0
	.db #0x00	; 0
	.db #0x00	; 0
	.db #0x00	; 0
	.db #0x00	; 0
	.db #0x00	; 0
	.db #0x00	; 0
	.db #0x00	; 0
	.db #0x03	; 3
	.db #0x03	; 3
	.db #0x03	; 3
	.db #0x03	; 3
	.db #0x00	; 0
	.db #0x00	; 0
	.db #0x00	; 0
	.db #0x00	; 0
	.db #0x05	; 5
	.db #0x05	; 5
	.db #0x05	; 5
	.db #0x05	; 5
	.db #0x00	; 0
	.db #0x00	; 0
	.db #0x00	; 0
	.db #0x00	; 0
	.db #0x00	; 0
	.db #0x00	; 0
	.db #0x00	; 0
	.db #0x00	; 0
	.db #0x03	; 3
	.db #0x03	; 3
	.db #0x03	; 3
	.db #0x03	; 3
	.db #0x00	; 0
	.db #0x00	; 0
	.db #0x00	; 0
	.db #0x00	; 0
	.db #0x05	; 5
	.db #0x05	; 5
	.db #0x05	; 5
	.db #0x05	; 5
	.db #0x00	; 0
	.db #0x00	; 0
	.db #0x00	; 0
	.db #0x00	; 0
	.db #0x00	; 0
	.db #0x00	; 0
	.db #0x00	; 0
	.db #0x00	; 0
	.area _CODE
	.area _CABS (ABS)
